
ctarget:     file format elf64-x86-64


Disassembly of section .init:

0000000000400bc8 <_init>:
  400bc8:	48 83 ec 08          	sub    $0x8,%rsp
  400bcc:	48 8b 05 25 34 20 00 	mov    0x203425(%rip),%rax        # 603ff8 <_DYNAMIC+0x1d0>
  400bd3:	48 85 c0             	test   %rax,%rax
  400bd6:	74 05                	je     400bdd <_init+0x15>
  400bd8:	e8 33 01 00 00       	callq  400d10 <__gmon_start__@plt>
  400bdd:	48 83 c4 08          	add    $0x8,%rsp
  400be1:	c3                   	retq   

Disassembly of section .plt:

0000000000400bf0 <strcasecmp@plt-0x10>:
  400bf0:	ff 35 12 34 20 00    	pushq  0x203412(%rip)        # 604008 <_GLOBAL_OFFSET_TABLE_+0x8>
  400bf6:	ff 25 14 34 20 00    	jmpq   *0x203414(%rip)        # 604010 <_GLOBAL_OFFSET_TABLE_+0x10>
  400bfc:	0f 1f 40 00          	nopl   0x0(%rax)

0000000000400c00 <strcasecmp@plt>:
  400c00:	ff 25 12 34 20 00    	jmpq   *0x203412(%rip)        # 604018 <_GLOBAL_OFFSET_TABLE_+0x18>
  400c06:	68 00 00 00 00       	pushq  $0x0
  400c0b:	e9 e0 ff ff ff       	jmpq   400bf0 <_init+0x28>

0000000000400c10 <__errno_location@plt>:
  400c10:	ff 25 0a 34 20 00    	jmpq   *0x20340a(%rip)        # 604020 <_GLOBAL_OFFSET_TABLE_+0x20>
  400c16:	68 01 00 00 00       	pushq  $0x1
  400c1b:	e9 d0 ff ff ff       	jmpq   400bf0 <_init+0x28>

0000000000400c20 <srandom@plt>:
  400c20:	ff 25 02 34 20 00    	jmpq   *0x203402(%rip)        # 604028 <_GLOBAL_OFFSET_TABLE_+0x28>
  400c26:	68 02 00 00 00       	pushq  $0x2
  400c2b:	e9 c0 ff ff ff       	jmpq   400bf0 <_init+0x28>

0000000000400c30 <strncmp@plt>:
  400c30:	ff 25 fa 33 20 00    	jmpq   *0x2033fa(%rip)        # 604030 <_GLOBAL_OFFSET_TABLE_+0x30>
  400c36:	68 03 00 00 00       	pushq  $0x3
  400c3b:	e9 b0 ff ff ff       	jmpq   400bf0 <_init+0x28>

0000000000400c40 <strcpy@plt>:
  400c40:	ff 25 f2 33 20 00    	jmpq   *0x2033f2(%rip)        # 604038 <_GLOBAL_OFFSET_TABLE_+0x38>
  400c46:	68 04 00 00 00       	pushq  $0x4
  400c4b:	e9 a0 ff ff ff       	jmpq   400bf0 <_init+0x28>

0000000000400c50 <puts@plt>:
  400c50:	ff 25 ea 33 20 00    	jmpq   *0x2033ea(%rip)        # 604040 <_GLOBAL_OFFSET_TABLE_+0x40>
  400c56:	68 05 00 00 00       	pushq  $0x5
  400c5b:	e9 90 ff ff ff       	jmpq   400bf0 <_init+0x28>

0000000000400c60 <write@plt>:
  400c60:	ff 25 e2 33 20 00    	jmpq   *0x2033e2(%rip)        # 604048 <_GLOBAL_OFFSET_TABLE_+0x48>
  400c66:	68 06 00 00 00       	pushq  $0x6
  400c6b:	e9 80 ff ff ff       	jmpq   400bf0 <_init+0x28>

0000000000400c70 <mmap@plt>:
  400c70:	ff 25 da 33 20 00    	jmpq   *0x2033da(%rip)        # 604050 <_GLOBAL_OFFSET_TABLE_+0x50>
  400c76:	68 07 00 00 00       	pushq  $0x7
  400c7b:	e9 70 ff ff ff       	jmpq   400bf0 <_init+0x28>

0000000000400c80 <printf@plt>:
  400c80:	ff 25 d2 33 20 00    	jmpq   *0x2033d2(%rip)        # 604058 <_GLOBAL_OFFSET_TABLE_+0x58>
  400c86:	68 08 00 00 00       	pushq  $0x8
  400c8b:	e9 60 ff ff ff       	jmpq   400bf0 <_init+0x28>

0000000000400c90 <memset@plt>:
  400c90:	ff 25 ca 33 20 00    	jmpq   *0x2033ca(%rip)        # 604060 <_GLOBAL_OFFSET_TABLE_+0x60>
  400c96:	68 09 00 00 00       	pushq  $0x9
  400c9b:	e9 50 ff ff ff       	jmpq   400bf0 <_init+0x28>

0000000000400ca0 <alarm@plt>:
  400ca0:	ff 25 c2 33 20 00    	jmpq   *0x2033c2(%rip)        # 604068 <_GLOBAL_OFFSET_TABLE_+0x68>
  400ca6:	68 0a 00 00 00       	pushq  $0xa
  400cab:	e9 40 ff ff ff       	jmpq   400bf0 <_init+0x28>

0000000000400cb0 <close@plt>:
  400cb0:	ff 25 ba 33 20 00    	jmpq   *0x2033ba(%rip)        # 604070 <_GLOBAL_OFFSET_TABLE_+0x70>
  400cb6:	68 0b 00 00 00       	pushq  $0xb
  400cbb:	e9 30 ff ff ff       	jmpq   400bf0 <_init+0x28>

0000000000400cc0 <read@plt>:
  400cc0:	ff 25 b2 33 20 00    	jmpq   *0x2033b2(%rip)        # 604078 <_GLOBAL_OFFSET_TABLE_+0x78>
  400cc6:	68 0c 00 00 00       	pushq  $0xc
  400ccb:	e9 20 ff ff ff       	jmpq   400bf0 <_init+0x28>

0000000000400cd0 <__libc_start_main@plt>:
  400cd0:	ff 25 aa 33 20 00    	jmpq   *0x2033aa(%rip)        # 604080 <_GLOBAL_OFFSET_TABLE_+0x80>
  400cd6:	68 0d 00 00 00       	pushq  $0xd
  400cdb:	e9 10 ff ff ff       	jmpq   400bf0 <_init+0x28>

0000000000400ce0 <signal@plt>:
  400ce0:	ff 25 a2 33 20 00    	jmpq   *0x2033a2(%rip)        # 604088 <_GLOBAL_OFFSET_TABLE_+0x88>
  400ce6:	68 0e 00 00 00       	pushq  $0xe
  400ceb:	e9 00 ff ff ff       	jmpq   400bf0 <_init+0x28>

0000000000400cf0 <gethostbyname@plt>:
  400cf0:	ff 25 9a 33 20 00    	jmpq   *0x20339a(%rip)        # 604090 <_GLOBAL_OFFSET_TABLE_+0x90>
  400cf6:	68 0f 00 00 00       	pushq  $0xf
  400cfb:	e9 f0 fe ff ff       	jmpq   400bf0 <_init+0x28>

0000000000400d00 <fprintf@plt>:
  400d00:	ff 25 92 33 20 00    	jmpq   *0x203392(%rip)        # 604098 <_GLOBAL_OFFSET_TABLE_+0x98>
  400d06:	68 10 00 00 00       	pushq  $0x10
  400d0b:	e9 e0 fe ff ff       	jmpq   400bf0 <_init+0x28>

0000000000400d10 <__gmon_start__@plt>:
  400d10:	ff 25 8a 33 20 00    	jmpq   *0x20338a(%rip)        # 6040a0 <_GLOBAL_OFFSET_TABLE_+0xa0>
  400d16:	68 11 00 00 00       	pushq  $0x11
  400d1b:	e9 d0 fe ff ff       	jmpq   400bf0 <_init+0x28>

0000000000400d20 <strtol@plt>:
  400d20:	ff 25 82 33 20 00    	jmpq   *0x203382(%rip)        # 6040a8 <_GLOBAL_OFFSET_TABLE_+0xa8>
  400d26:	68 12 00 00 00       	pushq  $0x12
  400d2b:	e9 c0 fe ff ff       	jmpq   400bf0 <_init+0x28>

0000000000400d30 <memcpy@plt>:
  400d30:	ff 25 7a 33 20 00    	jmpq   *0x20337a(%rip)        # 6040b0 <_GLOBAL_OFFSET_TABLE_+0xb0>
  400d36:	68 13 00 00 00       	pushq  $0x13
  400d3b:	e9 b0 fe ff ff       	jmpq   400bf0 <_init+0x28>

0000000000400d40 <time@plt>:
  400d40:	ff 25 72 33 20 00    	jmpq   *0x203372(%rip)        # 6040b8 <_GLOBAL_OFFSET_TABLE_+0xb8>
  400d46:	68 14 00 00 00       	pushq  $0x14
  400d4b:	e9 a0 fe ff ff       	jmpq   400bf0 <_init+0x28>

0000000000400d50 <random@plt>:
  400d50:	ff 25 6a 33 20 00    	jmpq   *0x20336a(%rip)        # 6040c0 <_GLOBAL_OFFSET_TABLE_+0xc0>
  400d56:	68 15 00 00 00       	pushq  $0x15
  400d5b:	e9 90 fe ff ff       	jmpq   400bf0 <_init+0x28>

0000000000400d60 <_IO_getc@plt>:
  400d60:	ff 25 62 33 20 00    	jmpq   *0x203362(%rip)        # 6040c8 <_GLOBAL_OFFSET_TABLE_+0xc8>
  400d66:	68 16 00 00 00       	pushq  $0x16
  400d6b:	e9 80 fe ff ff       	jmpq   400bf0 <_init+0x28>

0000000000400d70 <__isoc99_sscanf@plt>:
  400d70:	ff 25 5a 33 20 00    	jmpq   *0x20335a(%rip)        # 6040d0 <_GLOBAL_OFFSET_TABLE_+0xd0>
  400d76:	68 17 00 00 00       	pushq  $0x17
  400d7b:	e9 70 fe ff ff       	jmpq   400bf0 <_init+0x28>

0000000000400d80 <munmap@plt>:
  400d80:	ff 25 52 33 20 00    	jmpq   *0x203352(%rip)        # 6040d8 <_GLOBAL_OFFSET_TABLE_+0xd8>
  400d86:	68 18 00 00 00       	pushq  $0x18
  400d8b:	e9 60 fe ff ff       	jmpq   400bf0 <_init+0x28>

0000000000400d90 <bcopy@plt>:
  400d90:	ff 25 4a 33 20 00    	jmpq   *0x20334a(%rip)        # 6040e0 <_GLOBAL_OFFSET_TABLE_+0xe0>
  400d96:	68 19 00 00 00       	pushq  $0x19
  400d9b:	e9 50 fe ff ff       	jmpq   400bf0 <_init+0x28>

0000000000400da0 <fopen@plt>:
  400da0:	ff 25 42 33 20 00    	jmpq   *0x203342(%rip)        # 6040e8 <_GLOBAL_OFFSET_TABLE_+0xe8>
  400da6:	68 1a 00 00 00       	pushq  $0x1a
  400dab:	e9 40 fe ff ff       	jmpq   400bf0 <_init+0x28>

0000000000400db0 <getopt@plt>:
  400db0:	ff 25 3a 33 20 00    	jmpq   *0x20333a(%rip)        # 6040f0 <_GLOBAL_OFFSET_TABLE_+0xf0>
  400db6:	68 1b 00 00 00       	pushq  $0x1b
  400dbb:	e9 30 fe ff ff       	jmpq   400bf0 <_init+0x28>

0000000000400dc0 <strtoul@plt>:
  400dc0:	ff 25 32 33 20 00    	jmpq   *0x203332(%rip)        # 6040f8 <_GLOBAL_OFFSET_TABLE_+0xf8>
  400dc6:	68 1c 00 00 00       	pushq  $0x1c
  400dcb:	e9 20 fe ff ff       	jmpq   400bf0 <_init+0x28>

0000000000400dd0 <gethostname@plt>:
  400dd0:	ff 25 2a 33 20 00    	jmpq   *0x20332a(%rip)        # 604100 <_GLOBAL_OFFSET_TABLE_+0x100>
  400dd6:	68 1d 00 00 00       	pushq  $0x1d
  400ddb:	e9 10 fe ff ff       	jmpq   400bf0 <_init+0x28>

0000000000400de0 <sprintf@plt>:
  400de0:	ff 25 22 33 20 00    	jmpq   *0x203322(%rip)        # 604108 <_GLOBAL_OFFSET_TABLE_+0x108>
  400de6:	68 1e 00 00 00       	pushq  $0x1e
  400deb:	e9 00 fe ff ff       	jmpq   400bf0 <_init+0x28>

0000000000400df0 <exit@plt>:
  400df0:	ff 25 1a 33 20 00    	jmpq   *0x20331a(%rip)        # 604110 <_GLOBAL_OFFSET_TABLE_+0x110>
  400df6:	68 1f 00 00 00       	pushq  $0x1f
  400dfb:	e9 f0 fd ff ff       	jmpq   400bf0 <_init+0x28>

0000000000400e00 <connect@plt>:
  400e00:	ff 25 12 33 20 00    	jmpq   *0x203312(%rip)        # 604118 <_GLOBAL_OFFSET_TABLE_+0x118>
  400e06:	68 20 00 00 00       	pushq  $0x20
  400e0b:	e9 e0 fd ff ff       	jmpq   400bf0 <_init+0x28>

0000000000400e10 <socket@plt>:
  400e10:	ff 25 0a 33 20 00    	jmpq   *0x20330a(%rip)        # 604120 <_GLOBAL_OFFSET_TABLE_+0x120>
  400e16:	68 21 00 00 00       	pushq  $0x21
  400e1b:	e9 d0 fd ff ff       	jmpq   400bf0 <_init+0x28>

Disassembly of section .text:

0000000000400e20 <_start>:
  400e20:	31 ed                	xor    %ebp,%ebp
  400e22:	49 89 d1             	mov    %rdx,%r9
  400e25:	5e                   	pop    %rsi
  400e26:	48 89 e2             	mov    %rsp,%rdx
  400e29:	48 83 e4 f0          	and    $0xfffffffffffffff0,%rsp
  400e2d:	50                   	push   %rax
  400e2e:	54                   	push   %rsp
  400e2f:	49 c7 c0 60 2b 40 00 	mov    $0x402b60,%r8
  400e36:	48 c7 c1 f0 2a 40 00 	mov    $0x402af0,%rcx
  400e3d:	48 c7 c7 da 10 40 00 	mov    $0x4010da,%rdi
  400e44:	e8 87 fe ff ff       	callq  400cd0 <__libc_start_main@plt>
  400e49:	f4                   	hlt    
  400e4a:	66 0f 1f 44 00 00    	nopw   0x0(%rax,%rax,1)

0000000000400e50 <deregister_tm_clones>:
  400e50:	b8 b7 44 60 00       	mov    $0x6044b7,%eax
  400e55:	55                   	push   %rbp
  400e56:	48 2d b0 44 60 00    	sub    $0x6044b0,%rax
  400e5c:	48 83 f8 0e          	cmp    $0xe,%rax
  400e60:	48 89 e5             	mov    %rsp,%rbp
  400e63:	77 02                	ja     400e67 <deregister_tm_clones+0x17>
  400e65:	5d                   	pop    %rbp
  400e66:	c3                   	retq   
  400e67:	b8 00 00 00 00       	mov    $0x0,%eax
  400e6c:	48 85 c0             	test   %rax,%rax
  400e6f:	74 f4                	je     400e65 <deregister_tm_clones+0x15>
  400e71:	5d                   	pop    %rbp
  400e72:	bf b0 44 60 00       	mov    $0x6044b0,%edi
  400e77:	ff e0                	jmpq   *%rax
  400e79:	0f 1f 80 00 00 00 00 	nopl   0x0(%rax)

0000000000400e80 <register_tm_clones>:
  400e80:	b8 b0 44 60 00       	mov    $0x6044b0,%eax
  400e85:	55                   	push   %rbp
  400e86:	48 2d b0 44 60 00    	sub    $0x6044b0,%rax
  400e8c:	48 c1 f8 03          	sar    $0x3,%rax
  400e90:	48 89 e5             	mov    %rsp,%rbp
  400e93:	48 89 c2             	mov    %rax,%rdx
  400e96:	48 c1 ea 3f          	shr    $0x3f,%rdx
  400e9a:	48 01 d0             	add    %rdx,%rax
  400e9d:	48 d1 f8             	sar    %rax
  400ea0:	75 02                	jne    400ea4 <register_tm_clones+0x24>
  400ea2:	5d                   	pop    %rbp
  400ea3:	c3                   	retq   
  400ea4:	ba 00 00 00 00       	mov    $0x0,%edx
  400ea9:	48 85 d2             	test   %rdx,%rdx
  400eac:	74 f4                	je     400ea2 <register_tm_clones+0x22>
  400eae:	5d                   	pop    %rbp
  400eaf:	48 89 c6             	mov    %rax,%rsi
  400eb2:	bf b0 44 60 00       	mov    $0x6044b0,%edi
  400eb7:	ff e2                	jmpq   *%rdx
  400eb9:	0f 1f 80 00 00 00 00 	nopl   0x0(%rax)

0000000000400ec0 <__do_global_dtors_aux>:
  400ec0:	80 3d 11 36 20 00 00 	cmpb   $0x0,0x203611(%rip)        # 6044d8 <completed.6344>
  400ec7:	75 11                	jne    400eda <__do_global_dtors_aux+0x1a>
  400ec9:	55                   	push   %rbp
  400eca:	48 89 e5             	mov    %rsp,%rbp
  400ecd:	e8 7e ff ff ff       	callq  400e50 <deregister_tm_clones>
  400ed2:	5d                   	pop    %rbp
  400ed3:	c6 05 fe 35 20 00 01 	movb   $0x1,0x2035fe(%rip)        # 6044d8 <completed.6344>
  400eda:	f3 c3                	repz retq 
  400edc:	0f 1f 40 00          	nopl   0x0(%rax)

0000000000400ee0 <frame_dummy>:
  400ee0:	48 83 3d 38 2f 20 00 	cmpq   $0x0,0x202f38(%rip)        # 603e20 <__JCR_END__>
  400ee7:	00 
  400ee8:	74 1e                	je     400f08 <frame_dummy+0x28>
  400eea:	b8 00 00 00 00       	mov    $0x0,%eax
  400eef:	48 85 c0             	test   %rax,%rax
  400ef2:	74 14                	je     400f08 <frame_dummy+0x28>
  400ef4:	55                   	push   %rbp
  400ef5:	bf 20 3e 60 00       	mov    $0x603e20,%edi
  400efa:	48 89 e5             	mov    %rsp,%rbp
  400efd:	ff d0                	callq  *%rax
  400eff:	5d                   	pop    %rbp
  400f00:	e9 7b ff ff ff       	jmpq   400e80 <register_tm_clones>
  400f05:	0f 1f 00             	nopl   (%rax)
  400f08:	e9 73 ff ff ff       	jmpq   400e80 <register_tm_clones>

0000000000400f0d <usage>:
  400f0d:	48 83 ec 08          	sub    $0x8,%rsp
  400f11:	48 89 fe             	mov    %rdi,%rsi
  400f14:	83 3d ed 35 20 00 00 	cmpl   $0x0,0x2035ed(%rip)        # 604508 <is_checker>
  400f1b:	74 39                	je     400f56 <usage+0x49>
  400f1d:	bf 80 2b 40 00       	mov    $0x402b80,%edi
  400f22:	b8 00 00 00 00       	mov    $0x0,%eax
  400f27:	e8 54 fd ff ff       	callq  400c80 <printf@plt>
  400f2c:	bf b8 2b 40 00       	mov    $0x402bb8,%edi
  400f31:	e8 1a fd ff ff       	callq  400c50 <puts@plt>
  400f36:	bf 30 2d 40 00       	mov    $0x402d30,%edi
  400f3b:	e8 10 fd ff ff       	callq  400c50 <puts@plt>
  400f40:	bf e0 2b 40 00       	mov    $0x402be0,%edi
  400f45:	e8 06 fd ff ff       	callq  400c50 <puts@plt>
  400f4a:	bf 4a 2d 40 00       	mov    $0x402d4a,%edi
  400f4f:	e8 fc fc ff ff       	callq  400c50 <puts@plt>
  400f54:	eb 2d                	jmp    400f83 <usage+0x76>
  400f56:	bf 66 2d 40 00       	mov    $0x402d66,%edi
  400f5b:	b8 00 00 00 00       	mov    $0x0,%eax
  400f60:	e8 1b fd ff ff       	callq  400c80 <printf@plt>
  400f65:	bf 08 2c 40 00       	mov    $0x402c08,%edi
  400f6a:	e8 e1 fc ff ff       	callq  400c50 <puts@plt>
  400f6f:	bf 30 2c 40 00       	mov    $0x402c30,%edi
  400f74:	e8 d7 fc ff ff       	callq  400c50 <puts@plt>
  400f79:	bf 84 2d 40 00       	mov    $0x402d84,%edi
  400f7e:	e8 cd fc ff ff       	callq  400c50 <puts@plt>
  400f83:	bf 00 00 00 00       	mov    $0x0,%edi
  400f88:	e8 63 fe ff ff       	callq  400df0 <exit@plt>

0000000000400f8d <initialize_target>:
  400f8d:	55                   	push   %rbp
  400f8e:	53                   	push   %rbx
  400f8f:	48 81 ec 08 21 00 00 	sub    $0x2108,%rsp
  400f96:	89 f5                	mov    %esi,%ebp
  400f98:	89 3d 5a 35 20 00    	mov    %edi,0x20355a(%rip)        # 6044f8 <check_level>
  400f9e:	8b 3d c4 31 20 00    	mov    0x2031c4(%rip),%edi        # 604168 <target_id>
  400fa4:	e8 25 1b 00 00       	callq  402ace <gencookie>
  400fa9:	89 05 55 35 20 00    	mov    %eax,0x203555(%rip)        # 604504 <cookie>
  400faf:	89 c7                	mov    %eax,%edi
  400fb1:	e8 18 1b 00 00       	callq  402ace <gencookie>
  400fb6:	89 05 44 35 20 00    	mov    %eax,0x203544(%rip)        # 604500 <authkey>
  400fbc:	8b 05 a6 31 20 00    	mov    0x2031a6(%rip),%eax        # 604168 <target_id>
  400fc2:	8d 78 01             	lea    0x1(%rax),%edi
  400fc5:	e8 56 fc ff ff       	callq  400c20 <srandom@plt>
  400fca:	e8 81 fd ff ff       	callq  400d50 <random@plt>
  400fcf:	89 c7                	mov    %eax,%edi
  400fd1:	e8 c5 02 00 00       	callq  40129b <scramble>
  400fd6:	89 c3                	mov    %eax,%ebx
  400fd8:	ba 00 00 00 00       	mov    $0x0,%edx
  400fdd:	85 ed                	test   %ebp,%ebp
  400fdf:	74 18                	je     400ff9 <initialize_target+0x6c>
  400fe1:	bf 00 00 00 00       	mov    $0x0,%edi
  400fe6:	e8 55 fd ff ff       	callq  400d40 <time@plt>
  400feb:	89 c7                	mov    %eax,%edi
  400fed:	e8 2e fc ff ff       	callq  400c20 <srandom@plt>
  400ff2:	e8 59 fd ff ff       	callq  400d50 <random@plt>
  400ff7:	89 c2                	mov    %eax,%edx
  400ff9:	01 da                	add    %ebx,%edx
  400ffb:	0f b7 d2             	movzwl %dx,%edx
  400ffe:	8d 04 d5 00 01 00 00 	lea    0x100(,%rdx,8),%eax
  401005:	89 c0                	mov    %eax,%eax
  401007:	48 89 05 92 34 20 00 	mov    %rax,0x203492(%rip)        # 6044a0 <buf_offset>
  40100e:	c6 05 13 41 20 00 63 	movb   $0x63,0x204113(%rip)        # 605128 <target_prefix>
  401015:	83 3d 8c 34 20 00 00 	cmpl   $0x0,0x20348c(%rip)        # 6044a8 <notify>
  40101c:	0f 84 ae 00 00 00    	je     4010d0 <initialize_target+0x143>
  401022:	83 3d df 34 20 00 00 	cmpl   $0x0,0x2034df(%rip)        # 604508 <is_checker>
  401029:	0f 85 a1 00 00 00    	jne    4010d0 <initialize_target+0x143>
  40102f:	be 00 01 00 00       	mov    $0x100,%esi
  401034:	48 89 e7             	mov    %rsp,%rdi
  401037:	e8 94 fd ff ff       	callq  400dd0 <gethostname@plt>
  40103c:	85 c0                	test   %eax,%eax
  40103e:	75 13                	jne    401053 <initialize_target+0xc6>
  401040:	48 8b 3d 39 31 20 00 	mov    0x203139(%rip),%rdi        # 604180 <host_table>
  401047:	bb 88 41 60 00       	mov    $0x604188,%ebx
  40104c:	48 85 ff             	test   %rdi,%rdi
  40104f:	75 16                	jne    401067 <initialize_target+0xda>
  401051:	eb 50                	jmp    4010a3 <initialize_target+0x116>
  401053:	bf 60 2c 40 00       	mov    $0x402c60,%edi
  401058:	e8 f3 fb ff ff       	callq  400c50 <puts@plt>
  40105d:	bf 08 00 00 00       	mov    $0x8,%edi
  401062:	e8 89 fd ff ff       	callq  400df0 <exit@plt>
  401067:	48 89 e6             	mov    %rsp,%rsi
  40106a:	e8 91 fb ff ff       	callq  400c00 <strcasecmp@plt>
  40106f:	85 c0                	test   %eax,%eax
  401071:	74 4c                	je     4010bf <initialize_target+0x132>
  401073:	48 83 c3 08          	add    $0x8,%rbx
  401077:	48 8b 7b f8          	mov    -0x8(%rbx),%rdi
  40107b:	48 85 ff             	test   %rdi,%rdi
  40107e:	75 e7                	jne    401067 <initialize_target+0xda>
  401080:	eb 21                	jmp    4010a3 <initialize_target+0x116>
  401082:	48 8d b4 24 00 01 00 	lea    0x100(%rsp),%rsi
  401089:	00 
  40108a:	bf 98 2c 40 00       	mov    $0x402c98,%edi
  40108f:	b8 00 00 00 00       	mov    $0x0,%eax
  401094:	e8 e7 fb ff ff       	callq  400c80 <printf@plt>
  401099:	bf 08 00 00 00       	mov    $0x8,%edi
  40109e:	e8 4d fd ff ff       	callq  400df0 <exit@plt>
  4010a3:	48 89 e6             	mov    %rsp,%rsi
  4010a6:	bf c0 2c 40 00       	mov    $0x402cc0,%edi
  4010ab:	b8 00 00 00 00       	mov    $0x0,%eax
  4010b0:	e8 cb fb ff ff       	callq  400c80 <printf@plt>
  4010b5:	bf 08 00 00 00       	mov    $0x8,%edi
  4010ba:	e8 31 fd ff ff       	callq  400df0 <exit@plt>
  4010bf:	48 8d bc 24 00 01 00 	lea    0x100(%rsp),%rdi
  4010c6:	00 
  4010c7:	e8 7e 17 00 00       	callq  40284a <init_driver>
  4010cc:	85 c0                	test   %eax,%eax
  4010ce:	78 b2                	js     401082 <initialize_target+0xf5>
  4010d0:	48 81 c4 08 21 00 00 	add    $0x2108,%rsp
  4010d7:	5b                   	pop    %rbx
  4010d8:	5d                   	pop    %rbp
  4010d9:	c3                   	retq   

00000000004010da <main>:
  4010da:	41 56                	push   %r14
  4010dc:	41 55                	push   %r13
  4010de:	41 54                	push   %r12
  4010e0:	55                   	push   %rbp
  4010e1:	53                   	push   %rbx
  4010e2:	41 89 fc             	mov    %edi,%r12d
  4010e5:	48 89 f3             	mov    %rsi,%rbx
  4010e8:	be 54 1c 40 00       	mov    $0x401c54,%esi
  4010ed:	bf 0b 00 00 00       	mov    $0xb,%edi
  4010f2:	e8 e9 fb ff ff       	callq  400ce0 <signal@plt>
  4010f7:	be 06 1c 40 00       	mov    $0x401c06,%esi
  4010fc:	bf 07 00 00 00       	mov    $0x7,%edi
  401101:	e8 da fb ff ff       	callq  400ce0 <signal@plt>
  401106:	be a2 1c 40 00       	mov    $0x401ca2,%esi
  40110b:	bf 04 00 00 00       	mov    $0x4,%edi
  401110:	e8 cb fb ff ff       	callq  400ce0 <signal@plt>
  401115:	bd 9d 2d 40 00       	mov    $0x402d9d,%ebp
  40111a:	83 3d e7 33 20 00 00 	cmpl   $0x0,0x2033e7(%rip)        # 604508 <is_checker>
  401121:	74 1e                	je     401141 <main+0x67>
  401123:	be f0 1c 40 00       	mov    $0x401cf0,%esi
  401128:	bf 0e 00 00 00       	mov    $0xe,%edi
  40112d:	e8 ae fb ff ff       	callq  400ce0 <signal@plt>
  401132:	bf 05 00 00 00       	mov    $0x5,%edi
  401137:	e8 64 fb ff ff       	callq  400ca0 <alarm@plt>
  40113c:	bd a2 2d 40 00       	mov    $0x402da2,%ebp
  401141:	48 8b 05 78 33 20 00 	mov    0x203378(%rip),%rax        # 6044c0 <stdin@@GLIBC_2.2.5>
  401148:	48 89 05 a1 33 20 00 	mov    %rax,0x2033a1(%rip)        # 6044f0 <infile>
  40114f:	41 bd 00 00 00 00    	mov    $0x0,%r13d
  401155:	41 be 00 00 00 00    	mov    $0x0,%r14d
  40115b:	e9 b9 00 00 00       	jmpq   401219 <main+0x13f>
  401160:	83 e8 61             	sub    $0x61,%eax
  401163:	3c 10                	cmp    $0x10,%al
  401165:	0f 87 93 00 00 00    	ja     4011fe <main+0x124>
  40116b:	0f b6 c0             	movzbl %al,%eax
  40116e:	ff 24 c5 e8 2d 40 00 	jmpq   *0x402de8(,%rax,8)
  401175:	48 8b 3b             	mov    (%rbx),%rdi
  401178:	e8 90 fd ff ff       	callq  400f0d <usage>
  40117d:	be 50 2f 40 00       	mov    $0x402f50,%esi
  401182:	48 8b 3d 3f 33 20 00 	mov    0x20333f(%rip),%rdi        # 6044c8 <optarg@@GLIBC_2.2.5>
  401189:	e8 12 fc ff ff       	callq  400da0 <fopen@plt>
  40118e:	48 89 05 5b 33 20 00 	mov    %rax,0x20335b(%rip)        # 6044f0 <infile>
  401195:	48 85 c0             	test   %rax,%rax
  401198:	75 7f                	jne    401219 <main+0x13f>
  40119a:	48 8b 15 27 33 20 00 	mov    0x203327(%rip),%rdx        # 6044c8 <optarg@@GLIBC_2.2.5>
  4011a1:	be aa 2d 40 00       	mov    $0x402daa,%esi
  4011a6:	48 8b 3d 23 33 20 00 	mov    0x203323(%rip),%rdi        # 6044d0 <stderr@@GLIBC_2.2.5>
  4011ad:	e8 4e fb ff ff       	callq  400d00 <fprintf@plt>
  4011b2:	b8 01 00 00 00       	mov    $0x1,%eax
  4011b7:	e9 d6 00 00 00       	jmpq   401292 <main+0x1b8>
  4011bc:	ba 10 00 00 00       	mov    $0x10,%edx
  4011c1:	be 00 00 00 00       	mov    $0x0,%esi
  4011c6:	48 8b 3d fb 32 20 00 	mov    0x2032fb(%rip),%rdi        # 6044c8 <optarg@@GLIBC_2.2.5>
  4011cd:	e8 ee fb ff ff       	callq  400dc0 <strtoul@plt>
  4011d2:	41 89 c6             	mov    %eax,%r14d
  4011d5:	eb 42                	jmp    401219 <main+0x13f>
  4011d7:	ba 0a 00 00 00       	mov    $0xa,%edx
  4011dc:	be 00 00 00 00       	mov    $0x0,%esi
  4011e1:	48 8b 3d e0 32 20 00 	mov    0x2032e0(%rip),%rdi        # 6044c8 <optarg@@GLIBC_2.2.5>
  4011e8:	e8 33 fb ff ff       	callq  400d20 <strtol@plt>
  4011ed:	41 89 c5             	mov    %eax,%r13d
  4011f0:	eb 27                	jmp    401219 <main+0x13f>
  4011f2:	c7 05 ac 32 20 00 00 	movl   $0x0,0x2032ac(%rip)        # 6044a8 <notify>
  4011f9:	00 00 00 
  4011fc:	eb 1b                	jmp    401219 <main+0x13f>
  4011fe:	40 0f be f6          	movsbl %sil,%esi
  401202:	bf c7 2d 40 00       	mov    $0x402dc7,%edi
  401207:	b8 00 00 00 00       	mov    $0x0,%eax
  40120c:	e8 6f fa ff ff       	callq  400c80 <printf@plt>
  401211:	48 8b 3b             	mov    (%rbx),%rdi
  401214:	e8 f4 fc ff ff       	callq  400f0d <usage>
  401219:	48 89 ea             	mov    %rbp,%rdx
  40121c:	48 89 de             	mov    %rbx,%rsi
  40121f:	44 89 e7             	mov    %r12d,%edi
  401222:	e8 89 fb ff ff       	callq  400db0 <getopt@plt>
  401227:	89 c6                	mov    %eax,%esi
  401229:	3c ff                	cmp    $0xff,%al
  40122b:	0f 85 2f ff ff ff    	jne    401160 <main+0x86>
  401231:	be 00 00 00 00       	mov    $0x0,%esi
  401236:	44 89 ef             	mov    %r13d,%edi
  401239:	e8 4f fd ff ff       	callq  400f8d <initialize_target>
  40123e:	83 3d c3 32 20 00 00 	cmpl   $0x0,0x2032c3(%rip)        # 604508 <is_checker>
  401245:	74 25                	je     40126c <main+0x192>
  401247:	44 3b 35 b2 32 20 00 	cmp    0x2032b2(%rip),%r14d        # 604500 <authkey>
  40124e:	74 1c                	je     40126c <main+0x192>
  401250:	44 89 f6             	mov    %r14d,%esi
  401253:	bf 00 2d 40 00       	mov    $0x402d00,%edi
  401258:	b8 00 00 00 00       	mov    $0x0,%eax
  40125d:	e8 1e fa ff ff       	callq  400c80 <printf@plt>
  401262:	b8 00 00 00 00       	mov    $0x0,%eax
  401267:	e8 00 06 00 00       	callq  40186c <check_fail>
  40126c:	8b 35 92 32 20 00    	mov    0x203292(%rip),%esi        # 604504 <cookie>
  401272:	bf da 2d 40 00       	mov    $0x402dda,%edi
  401277:	b8 00 00 00 00       	mov    $0x0,%eax
  40127c:	e8 ff f9 ff ff       	callq  400c80 <printf@plt>
  401281:	48 8b 3d 18 32 20 00 	mov    0x203218(%rip),%rdi        # 6044a0 <buf_offset>
  401288:	e8 32 0b 00 00       	callq  401dbf <stable_launch>
  40128d:	b8 00 00 00 00       	mov    $0x0,%eax
  401292:	5b                   	pop    %rbx
  401293:	5d                   	pop    %rbp
  401294:	41 5c                	pop    %r12
  401296:	41 5d                	pop    %r13
  401298:	41 5e                	pop    %r14
  40129a:	c3                   	retq   

000000000040129b <scramble>:
  40129b:	b8 00 00 00 00       	mov    $0x0,%eax
  4012a0:	89 c2                	mov    %eax,%edx
  4012a2:	89 7c 94 d0          	mov    %edi,-0x30(%rsp,%rdx,4)
  4012a6:	83 c0 01             	add    $0x1,%eax
  4012a9:	81 c7 9e c8 00 00    	add    $0xc89e,%edi
  4012af:	83 f8 0a             	cmp    $0xa,%eax
  4012b2:	75 ec                	jne    4012a0 <scramble+0x5>
  4012b4:	8b 44 24 e0          	mov    -0x20(%rsp),%eax
  4012b8:	69 c0 1e 05 00 00    	imul   $0x51e,%eax,%eax
  4012be:	89 44 24 e0          	mov    %eax,-0x20(%rsp)
  4012c2:	8b 44 24 d8          	mov    -0x28(%rsp),%eax
  4012c6:	69 c0 98 ab 00 00    	imul   $0xab98,%eax,%eax
  4012cc:	89 44 24 d8          	mov    %eax,-0x28(%rsp)
  4012d0:	8b 44 24 f4          	mov    -0xc(%rsp),%eax
  4012d4:	69 c0 20 b0 00 00    	imul   $0xb020,%eax,%eax
  4012da:	89 44 24 f4          	mov    %eax,-0xc(%rsp)
  4012de:	8b 44 24 f4          	mov    -0xc(%rsp),%eax
  4012e2:	69 c0 ef f2 00 00    	imul   $0xf2ef,%eax,%eax
  4012e8:	89 44 24 f4          	mov    %eax,-0xc(%rsp)
  4012ec:	8b 44 24 ec          	mov    -0x14(%rsp),%eax
  4012f0:	69 c0 32 07 00 00    	imul   $0x732,%eax,%eax
  4012f6:	89 44 24 ec          	mov    %eax,-0x14(%rsp)
  4012fa:	8b 44 24 dc          	mov    -0x24(%rsp),%eax
  4012fe:	69 c0 dc d7 00 00    	imul   $0xd7dc,%eax,%eax
  401304:	89 44 24 dc          	mov    %eax,-0x24(%rsp)
  401308:	8b 44 24 d4          	mov    -0x2c(%rsp),%eax
  40130c:	69 c0 33 9a 00 00    	imul   $0x9a33,%eax,%eax
  401312:	89 44 24 d4          	mov    %eax,-0x2c(%rsp)
  401316:	8b 44 24 d4          	mov    -0x2c(%rsp),%eax
  40131a:	69 c0 cf 57 00 00    	imul   $0x57cf,%eax,%eax
  401320:	89 44 24 d4          	mov    %eax,-0x2c(%rsp)
  401324:	8b 44 24 dc          	mov    -0x24(%rsp),%eax
  401328:	69 c0 a8 13 00 00    	imul   $0x13a8,%eax,%eax
  40132e:	89 44 24 dc          	mov    %eax,-0x24(%rsp)
  401332:	8b 44 24 d4          	mov    -0x2c(%rsp),%eax
  401336:	69 c0 09 8f 00 00    	imul   $0x8f09,%eax,%eax
  40133c:	89 44 24 d4          	mov    %eax,-0x2c(%rsp)
  401340:	8b 44 24 f0          	mov    -0x10(%rsp),%eax
  401344:	69 c0 22 7a 00 00    	imul   $0x7a22,%eax,%eax
  40134a:	89 44 24 f0          	mov    %eax,-0x10(%rsp)
  40134e:	8b 44 24 d8          	mov    -0x28(%rsp),%eax
  401352:	69 c0 ae 31 00 00    	imul   $0x31ae,%eax,%eax
  401358:	89 44 24 d8          	mov    %eax,-0x28(%rsp)
  40135c:	8b 44 24 dc          	mov    -0x24(%rsp),%eax
  401360:	69 c0 4d c8 00 00    	imul   $0xc84d,%eax,%eax
  401366:	89 44 24 dc          	mov    %eax,-0x24(%rsp)
  40136a:	8b 44 24 f4          	mov    -0xc(%rsp),%eax
  40136e:	69 c0 3a 24 00 00    	imul   $0x243a,%eax,%eax
  401374:	89 44 24 f4          	mov    %eax,-0xc(%rsp)
  401378:	8b 44 24 e8          	mov    -0x18(%rsp),%eax
  40137c:	69 c0 37 73 00 00    	imul   $0x7337,%eax,%eax
  401382:	89 44 24 e8          	mov    %eax,-0x18(%rsp)
  401386:	8b 44 24 d4          	mov    -0x2c(%rsp),%eax
  40138a:	69 c0 f9 0c 00 00    	imul   $0xcf9,%eax,%eax
  401390:	89 44 24 d4          	mov    %eax,-0x2c(%rsp)
  401394:	8b 44 24 f4          	mov    -0xc(%rsp),%eax
  401398:	69 c0 db d8 00 00    	imul   $0xd8db,%eax,%eax
  40139e:	89 44 24 f4          	mov    %eax,-0xc(%rsp)
  4013a2:	8b 44 24 ec          	mov    -0x14(%rsp),%eax
  4013a6:	69 c0 34 a5 00 00    	imul   $0xa534,%eax,%eax
  4013ac:	89 44 24 ec          	mov    %eax,-0x14(%rsp)
  4013b0:	8b 44 24 d4          	mov    -0x2c(%rsp),%eax
  4013b4:	69 c0 e4 90 00 00    	imul   $0x90e4,%eax,%eax
  4013ba:	89 44 24 d4          	mov    %eax,-0x2c(%rsp)
  4013be:	8b 44 24 e8          	mov    -0x18(%rsp),%eax
  4013c2:	69 c0 22 13 00 00    	imul   $0x1322,%eax,%eax
  4013c8:	89 44 24 e8          	mov    %eax,-0x18(%rsp)
  4013cc:	8b 44 24 e4          	mov    -0x1c(%rsp),%eax
  4013d0:	69 c0 80 90 00 00    	imul   $0x9080,%eax,%eax
  4013d6:	89 44 24 e4          	mov    %eax,-0x1c(%rsp)
  4013da:	8b 44 24 d0          	mov    -0x30(%rsp),%eax
  4013de:	69 c0 e9 7e 00 00    	imul   $0x7ee9,%eax,%eax
  4013e4:	89 44 24 d0          	mov    %eax,-0x30(%rsp)
  4013e8:	8b 44 24 ec          	mov    -0x14(%rsp),%eax
  4013ec:	69 c0 2a 9d 00 00    	imul   $0x9d2a,%eax,%eax
  4013f2:	89 44 24 ec          	mov    %eax,-0x14(%rsp)
  4013f6:	8b 44 24 d8          	mov    -0x28(%rsp),%eax
  4013fa:	69 c0 fd 9e 00 00    	imul   $0x9efd,%eax,%eax
  401400:	89 44 24 d8          	mov    %eax,-0x28(%rsp)
  401404:	8b 44 24 e8          	mov    -0x18(%rsp),%eax
  401408:	69 c0 a0 15 00 00    	imul   $0x15a0,%eax,%eax
  40140e:	89 44 24 e8          	mov    %eax,-0x18(%rsp)
  401412:	8b 44 24 e8          	mov    -0x18(%rsp),%eax
  401416:	69 c0 70 81 00 00    	imul   $0x8170,%eax,%eax
  40141c:	89 44 24 e8          	mov    %eax,-0x18(%rsp)
  401420:	8b 44 24 d0          	mov    -0x30(%rsp),%eax
  401424:	69 c0 09 d2 00 00    	imul   $0xd209,%eax,%eax
  40142a:	89 44 24 d0          	mov    %eax,-0x30(%rsp)
  40142e:	8b 44 24 d0          	mov    -0x30(%rsp),%eax
  401432:	69 c0 40 96 00 00    	imul   $0x9640,%eax,%eax
  401438:	89 44 24 d0          	mov    %eax,-0x30(%rsp)
  40143c:	8b 44 24 e0          	mov    -0x20(%rsp),%eax
  401440:	69 c0 40 e6 00 00    	imul   $0xe640,%eax,%eax
  401446:	89 44 24 e0          	mov    %eax,-0x20(%rsp)
  40144a:	8b 44 24 dc          	mov    -0x24(%rsp),%eax
  40144e:	69 c0 b1 de 00 00    	imul   $0xdeb1,%eax,%eax
  401454:	89 44 24 dc          	mov    %eax,-0x24(%rsp)
  401458:	8b 44 24 ec          	mov    -0x14(%rsp),%eax
  40145c:	69 c0 c3 44 00 00    	imul   $0x44c3,%eax,%eax
  401462:	89 44 24 ec          	mov    %eax,-0x14(%rsp)
  401466:	8b 44 24 e8          	mov    -0x18(%rsp),%eax
  40146a:	69 c0 cc d1 00 00    	imul   $0xd1cc,%eax,%eax
  401470:	89 44 24 e8          	mov    %eax,-0x18(%rsp)
  401474:	8b 44 24 d0          	mov    -0x30(%rsp),%eax
  401478:	69 c0 3c a4 00 00    	imul   $0xa43c,%eax,%eax
  40147e:	89 44 24 d0          	mov    %eax,-0x30(%rsp)
  401482:	8b 44 24 f4          	mov    -0xc(%rsp),%eax
  401486:	69 c0 99 a6 00 00    	imul   $0xa699,%eax,%eax
  40148c:	89 44 24 f4          	mov    %eax,-0xc(%rsp)
  401490:	8b 44 24 d8          	mov    -0x28(%rsp),%eax
  401494:	69 c0 24 0f 00 00    	imul   $0xf24,%eax,%eax
  40149a:	89 44 24 d8          	mov    %eax,-0x28(%rsp)
  40149e:	8b 44 24 e0          	mov    -0x20(%rsp),%eax
  4014a2:	69 c0 37 cd 00 00    	imul   $0xcd37,%eax,%eax
  4014a8:	89 44 24 e0          	mov    %eax,-0x20(%rsp)
  4014ac:	8b 44 24 ec          	mov    -0x14(%rsp),%eax
  4014b0:	69 c0 bb a4 00 00    	imul   $0xa4bb,%eax,%eax
  4014b6:	89 44 24 ec          	mov    %eax,-0x14(%rsp)
  4014ba:	8b 44 24 dc          	mov    -0x24(%rsp),%eax
  4014be:	69 c0 58 ca 00 00    	imul   $0xca58,%eax,%eax
  4014c4:	89 44 24 dc          	mov    %eax,-0x24(%rsp)
  4014c8:	8b 44 24 f0          	mov    -0x10(%rsp),%eax
  4014cc:	69 c0 da 22 00 00    	imul   $0x22da,%eax,%eax
  4014d2:	89 44 24 f0          	mov    %eax,-0x10(%rsp)
  4014d6:	8b 44 24 f0          	mov    -0x10(%rsp),%eax
  4014da:	69 c0 b8 f2 00 00    	imul   $0xf2b8,%eax,%eax
  4014e0:	89 44 24 f0          	mov    %eax,-0x10(%rsp)
  4014e4:	8b 44 24 e8          	mov    -0x18(%rsp),%eax
  4014e8:	69 c0 5c 97 00 00    	imul   $0x975c,%eax,%eax
  4014ee:	89 44 24 e8          	mov    %eax,-0x18(%rsp)
  4014f2:	8b 44 24 e4          	mov    -0x1c(%rsp),%eax
  4014f6:	69 c0 3d c8 00 00    	imul   $0xc83d,%eax,%eax
  4014fc:	89 44 24 e4          	mov    %eax,-0x1c(%rsp)
  401500:	8b 44 24 e4          	mov    -0x1c(%rsp),%eax
  401504:	69 c0 46 27 00 00    	imul   $0x2746,%eax,%eax
  40150a:	89 44 24 e4          	mov    %eax,-0x1c(%rsp)
  40150e:	8b 44 24 e0          	mov    -0x20(%rsp),%eax
  401512:	69 c0 bc 03 00 00    	imul   $0x3bc,%eax,%eax
  401518:	89 44 24 e0          	mov    %eax,-0x20(%rsp)
  40151c:	8b 44 24 f4          	mov    -0xc(%rsp),%eax
  401520:	69 c0 f8 18 00 00    	imul   $0x18f8,%eax,%eax
  401526:	89 44 24 f4          	mov    %eax,-0xc(%rsp)
  40152a:	8b 44 24 dc          	mov    -0x24(%rsp),%eax
  40152e:	69 c0 fd 66 00 00    	imul   $0x66fd,%eax,%eax
  401534:	89 44 24 dc          	mov    %eax,-0x24(%rsp)
  401538:	8b 44 24 e0          	mov    -0x20(%rsp),%eax
  40153c:	69 c0 18 ce 00 00    	imul   $0xce18,%eax,%eax
  401542:	89 44 24 e0          	mov    %eax,-0x20(%rsp)
  401546:	8b 44 24 ec          	mov    -0x14(%rsp),%eax
  40154a:	69 c0 59 7b 00 00    	imul   $0x7b59,%eax,%eax
  401550:	89 44 24 ec          	mov    %eax,-0x14(%rsp)
  401554:	8b 44 24 e0          	mov    -0x20(%rsp),%eax
  401558:	69 c0 ca af 00 00    	imul   $0xafca,%eax,%eax
  40155e:	89 44 24 e0          	mov    %eax,-0x20(%rsp)
  401562:	8b 44 24 d0          	mov    -0x30(%rsp),%eax
  401566:	69 c0 76 a7 00 00    	imul   $0xa776,%eax,%eax
  40156c:	89 44 24 d0          	mov    %eax,-0x30(%rsp)
  401570:	8b 44 24 dc          	mov    -0x24(%rsp),%eax
  401574:	69 c0 ae db 00 00    	imul   $0xdbae,%eax,%eax
  40157a:	89 44 24 dc          	mov    %eax,-0x24(%rsp)
  40157e:	8b 44 24 e4          	mov    -0x1c(%rsp),%eax
  401582:	69 c0 93 5e 00 00    	imul   $0x5e93,%eax,%eax
  401588:	89 44 24 e4          	mov    %eax,-0x1c(%rsp)
  40158c:	8b 44 24 d4          	mov    -0x2c(%rsp),%eax
  401590:	69 c0 ce c0 00 00    	imul   $0xc0ce,%eax,%eax
  401596:	89 44 24 d4          	mov    %eax,-0x2c(%rsp)
  40159a:	8b 44 24 e8          	mov    -0x18(%rsp),%eax
  40159e:	69 c0 4f c2 00 00    	imul   $0xc24f,%eax,%eax
  4015a4:	89 44 24 e8          	mov    %eax,-0x18(%rsp)
  4015a8:	8b 44 24 d4          	mov    -0x2c(%rsp),%eax
  4015ac:	69 c0 41 92 00 00    	imul   $0x9241,%eax,%eax
  4015b2:	89 44 24 d4          	mov    %eax,-0x2c(%rsp)
  4015b6:	8b 44 24 f0          	mov    -0x10(%rsp),%eax
  4015ba:	69 c0 23 1c 00 00    	imul   $0x1c23,%eax,%eax
  4015c0:	89 44 24 f0          	mov    %eax,-0x10(%rsp)
  4015c4:	8b 44 24 d8          	mov    -0x28(%rsp),%eax
  4015c8:	69 c0 2f 29 00 00    	imul   $0x292f,%eax,%eax
  4015ce:	89 44 24 d8          	mov    %eax,-0x28(%rsp)
  4015d2:	8b 44 24 ec          	mov    -0x14(%rsp),%eax
  4015d6:	69 c0 03 93 00 00    	imul   $0x9303,%eax,%eax
  4015dc:	89 44 24 ec          	mov    %eax,-0x14(%rsp)
  4015e0:	8b 44 24 dc          	mov    -0x24(%rsp),%eax
  4015e4:	69 c0 dd 42 00 00    	imul   $0x42dd,%eax,%eax
  4015ea:	89 44 24 dc          	mov    %eax,-0x24(%rsp)
  4015ee:	8b 44 24 d4          	mov    -0x2c(%rsp),%eax
  4015f2:	69 c0 fc 5d 00 00    	imul   $0x5dfc,%eax,%eax
  4015f8:	89 44 24 d4          	mov    %eax,-0x2c(%rsp)
  4015fc:	8b 44 24 dc          	mov    -0x24(%rsp),%eax
  401600:	69 c0 2d 79 00 00    	imul   $0x792d,%eax,%eax
  401606:	89 44 24 dc          	mov    %eax,-0x24(%rsp)
  40160a:	8b 44 24 d4          	mov    -0x2c(%rsp),%eax
  40160e:	69 c0 90 b9 00 00    	imul   $0xb990,%eax,%eax
  401614:	89 44 24 d4          	mov    %eax,-0x2c(%rsp)
  401618:	8b 44 24 ec          	mov    -0x14(%rsp),%eax
  40161c:	69 c0 c3 fd 00 00    	imul   $0xfdc3,%eax,%eax
  401622:	89 44 24 ec          	mov    %eax,-0x14(%rsp)
  401626:	8b 44 24 e8          	mov    -0x18(%rsp),%eax
  40162a:	69 c0 9a b9 00 00    	imul   $0xb99a,%eax,%eax
  401630:	89 44 24 e8          	mov    %eax,-0x18(%rsp)
  401634:	8b 44 24 f0          	mov    -0x10(%rsp),%eax
  401638:	69 c0 dc 56 00 00    	imul   $0x56dc,%eax,%eax
  40163e:	89 44 24 f0          	mov    %eax,-0x10(%rsp)
  401642:	8b 44 24 d0          	mov    -0x30(%rsp),%eax
  401646:	69 c0 7c 6c 00 00    	imul   $0x6c7c,%eax,%eax
  40164c:	89 44 24 d0          	mov    %eax,-0x30(%rsp)
  401650:	8b 44 24 e4          	mov    -0x1c(%rsp),%eax
  401654:	69 c0 be d5 00 00    	imul   $0xd5be,%eax,%eax
  40165a:	89 44 24 e4          	mov    %eax,-0x1c(%rsp)
  40165e:	8b 44 24 e0          	mov    -0x20(%rsp),%eax
  401662:	69 c0 f4 b2 00 00    	imul   $0xb2f4,%eax,%eax
  401668:	89 44 24 e0          	mov    %eax,-0x20(%rsp)
  40166c:	8b 44 24 d4          	mov    -0x2c(%rsp),%eax
  401670:	69 c0 fb f3 00 00    	imul   $0xf3fb,%eax,%eax
  401676:	89 44 24 d4          	mov    %eax,-0x2c(%rsp)
  40167a:	8b 44 24 d0          	mov    -0x30(%rsp),%eax
  40167e:	69 c0 35 7a 00 00    	imul   $0x7a35,%eax,%eax
  401684:	89 44 24 d0          	mov    %eax,-0x30(%rsp)
  401688:	8b 44 24 f0          	mov    -0x10(%rsp),%eax
  40168c:	69 c0 4a 2a 00 00    	imul   $0x2a4a,%eax,%eax
  401692:	89 44 24 f0          	mov    %eax,-0x10(%rsp)
  401696:	8b 44 24 dc          	mov    -0x24(%rsp),%eax
  40169a:	69 c0 da af 00 00    	imul   $0xafda,%eax,%eax
  4016a0:	89 44 24 dc          	mov    %eax,-0x24(%rsp)
  4016a4:	8b 44 24 e8          	mov    -0x18(%rsp),%eax
  4016a8:	69 c0 b8 7a 00 00    	imul   $0x7ab8,%eax,%eax
  4016ae:	89 44 24 e8          	mov    %eax,-0x18(%rsp)
  4016b2:	ba 00 00 00 00       	mov    $0x0,%edx
  4016b7:	b8 00 00 00 00       	mov    $0x0,%eax
  4016bc:	89 d1                	mov    %edx,%ecx
  4016be:	8b 4c 8c d0          	mov    -0x30(%rsp,%rcx,4),%ecx
  4016c2:	01 c8                	add    %ecx,%eax
  4016c4:	83 c2 01             	add    $0x1,%edx
  4016c7:	83 fa 0a             	cmp    $0xa,%edx
  4016ca:	75 f0                	jne    4016bc <scramble+0x421>
  4016cc:	f3 c3                	repz retq 

00000000004016ce <getbuf>:
  4016ce:	48 83 ec 28          	sub    $0x28,%rsp
  4016d2:	48 89 e7             	mov    %rsp,%rdi
  4016d5:	e8 c1 01 00 00       	callq  40189b <Gets>
  4016da:	b8 01 00 00 00       	mov    $0x1,%eax
  4016df:	48 83 c4 28          	add    $0x28,%rsp
  4016e3:	c3                   	retq   

00000000004016e4 <touch1>:
  4016e4:	48 83 ec 08          	sub    $0x8,%rsp
  4016e8:	c7 05 0a 2e 20 00 01 	movl   $0x1,0x202e0a(%rip)        # 6044fc <vlevel>
  4016ef:	00 00 00 
  4016f2:	bf bd 2f 40 00       	mov    $0x402fbd,%edi
  4016f7:	e8 54 f5 ff ff       	callq  400c50 <puts@plt>
  4016fc:	bf 01 00 00 00       	mov    $0x1,%edi
  401701:	e8 1c 04 00 00       	callq  401b22 <validate>
  401706:	bf 00 00 00 00       	mov    $0x0,%edi
  40170b:	e8 e0 f6 ff ff       	callq  400df0 <exit@plt>

0000000000401710 <touch2>:
  401710:	48 83 ec 08          	sub    $0x8,%rsp
  401714:	89 fe                	mov    %edi,%esi
  401716:	c7 05 dc 2d 20 00 02 	movl   $0x2,0x202ddc(%rip)        # 6044fc <vlevel>
  40171d:	00 00 00 
  401720:	3b 3d de 2d 20 00    	cmp    0x202dde(%rip),%edi        # 604504 <cookie>
  401726:	75 1b                	jne    401743 <touch2+0x33>
  401728:	bf e0 2f 40 00       	mov    $0x402fe0,%edi
  40172d:	b8 00 00 00 00       	mov    $0x0,%eax
  401732:	e8 49 f5 ff ff       	callq  400c80 <printf@plt>
  401737:	bf 02 00 00 00       	mov    $0x2,%edi
  40173c:	e8 e1 03 00 00       	callq  401b22 <validate>
  401741:	eb 19                	jmp    40175c <touch2+0x4c>
  401743:	bf 08 30 40 00       	mov    $0x403008,%edi
  401748:	b8 00 00 00 00       	mov    $0x0,%eax
  40174d:	e8 2e f5 ff ff       	callq  400c80 <printf@plt>
  401752:	bf 02 00 00 00       	mov    $0x2,%edi
  401757:	e8 82 04 00 00       	callq  401bde <fail>
  40175c:	bf 00 00 00 00       	mov    $0x0,%edi
  401761:	e8 8a f6 ff ff       	callq  400df0 <exit@plt>

0000000000401766 <hexmatch>:
  401766:	41 54                	push   %r12
  401768:	55                   	push   %rbp
  401769:	53                   	push   %rbx
  40176a:	48 83 ec 70          	sub    $0x70,%rsp
  40176e:	41 89 fc             	mov    %edi,%r12d
  401771:	48 89 f5             	mov    %rsi,%rbp
  401774:	e8 d7 f5 ff ff       	callq  400d50 <random@plt>
  401779:	48 89 c1             	mov    %rax,%rcx
  40177c:	48 ba 0b d7 a3 70 3d 	movabs $0xa3d70a3d70a3d70b,%rdx
  401783:	0a d7 a3 
  401786:	48 f7 ea             	imul   %rdx
  401789:	48 8d 04 0a          	lea    (%rdx,%rcx,1),%rax
  40178d:	48 c1 f8 06          	sar    $0x6,%rax
  401791:	48 89 ce             	mov    %rcx,%rsi
  401794:	48 c1 fe 3f          	sar    $0x3f,%rsi
  401798:	48 29 f0             	sub    %rsi,%rax
  40179b:	48 8d 04 80          	lea    (%rax,%rax,4),%rax
  40179f:	48 8d 04 80          	lea    (%rax,%rax,4),%rax
  4017a3:	48 c1 e0 02          	shl    $0x2,%rax
  4017a7:	48 29 c1             	sub    %rax,%rcx
  4017aa:	48 8d 1c 0c          	lea    (%rsp,%rcx,1),%rbx
  4017ae:	44 89 e2             	mov    %r12d,%edx
  4017b1:	be da 2f 40 00       	mov    $0x402fda,%esi
  4017b6:	48 89 df             	mov    %rbx,%rdi
  4017b9:	b8 00 00 00 00       	mov    $0x0,%eax
  4017be:	e8 1d f6 ff ff       	callq  400de0 <sprintf@plt>
  4017c3:	ba 09 00 00 00       	mov    $0x9,%edx
  4017c8:	48 89 de             	mov    %rbx,%rsi
  4017cb:	48 89 ef             	mov    %rbp,%rdi
  4017ce:	e8 5d f4 ff ff       	callq  400c30 <strncmp@plt>
  4017d3:	85 c0                	test   %eax,%eax
  4017d5:	0f 94 c0             	sete   %al
  4017d8:	0f b6 c0             	movzbl %al,%eax
  4017db:	48 83 c4 70          	add    $0x70,%rsp
  4017df:	5b                   	pop    %rbx
  4017e0:	5d                   	pop    %rbp
  4017e1:	41 5c                	pop    %r12
  4017e3:	c3                   	retq   

00000000004017e4 <touch3>:
  4017e4:	53                   	push   %rbx
  4017e5:	48 89 fb             	mov    %rdi,%rbx
  4017e8:	c7 05 0a 2d 20 00 03 	movl   $0x3,0x202d0a(%rip)        # 6044fc <vlevel>
  4017ef:	00 00 00 
  4017f2:	48 89 fe             	mov    %rdi,%rsi
  4017f5:	8b 3d 09 2d 20 00    	mov    0x202d09(%rip),%edi        # 604504 <cookie>
  4017fb:	e8 66 ff ff ff       	callq  401766 <hexmatch>
  401800:	85 c0                	test   %eax,%eax
  401802:	74 1e                	je     401822 <touch3+0x3e>
  401804:	48 89 de             	mov    %rbx,%rsi
  401807:	bf 30 30 40 00       	mov    $0x403030,%edi
  40180c:	b8 00 00 00 00       	mov    $0x0,%eax
  401811:	e8 6a f4 ff ff       	callq  400c80 <printf@plt>
  401816:	bf 03 00 00 00       	mov    $0x3,%edi
  40181b:	e8 02 03 00 00       	callq  401b22 <validate>
  401820:	eb 1c                	jmp    40183e <touch3+0x5a>
  401822:	48 89 de             	mov    %rbx,%rsi
  401825:	bf 58 30 40 00       	mov    $0x403058,%edi
  40182a:	b8 00 00 00 00       	mov    $0x0,%eax
  40182f:	e8 4c f4 ff ff       	callq  400c80 <printf@plt>
  401834:	bf 03 00 00 00       	mov    $0x3,%edi
  401839:	e8 a0 03 00 00       	callq  401bde <fail>
  40183e:	bf 00 00 00 00       	mov    $0x0,%edi
  401843:	e8 a8 f5 ff ff       	callq  400df0 <exit@plt>

0000000000401848 <test>:
  401848:	48 83 ec 08          	sub    $0x8,%rsp
  40184c:	b8 00 00 00 00       	mov    $0x0,%eax
  401851:	e8 78 fe ff ff       	callq  4016ce <getbuf>
  401856:	89 c6                	mov    %eax,%esi
  401858:	bf 80 30 40 00       	mov    $0x403080,%edi
  40185d:	b8 00 00 00 00       	mov    $0x0,%eax
  401862:	e8 19 f4 ff ff       	callq  400c80 <printf@plt>
  401867:	48 83 c4 08          	add    $0x8,%rsp
  40186b:	c3                   	retq   

000000000040186c <check_fail>:
  40186c:	48 83 ec 08          	sub    $0x8,%rsp
  401870:	0f be 35 b1 38 20 00 	movsbl 0x2038b1(%rip),%esi        # 605128 <target_prefix>
  401877:	b9 20 45 60 00       	mov    $0x604520,%ecx
  40187c:	8b 15 76 2c 20 00    	mov    0x202c76(%rip),%edx        # 6044f8 <check_level>
  401882:	bf a3 30 40 00       	mov    $0x4030a3,%edi
  401887:	b8 00 00 00 00       	mov    $0x0,%eax
  40188c:	e8 ef f3 ff ff       	callq  400c80 <printf@plt>
  401891:	bf 01 00 00 00       	mov    $0x1,%edi
  401896:	e8 55 f5 ff ff       	callq  400df0 <exit@plt>

000000000040189b <Gets>:
  40189b:	55                   	push   %rbp
  40189c:	53                   	push   %rbx
  40189d:	48 83 ec 08          	sub    $0x8,%rsp
  4018a1:	48 89 fd             	mov    %rdi,%rbp
  4018a4:	c7 05 76 38 20 00 00 	movl   $0x0,0x203876(%rip)        # 605124 <gets_cnt>
  4018ab:	00 00 00 
  4018ae:	48 89 fb             	mov    %rdi,%rbx
  4018b1:	eb 5f                	jmp    401912 <Gets+0x77>
  4018b3:	48 83 c3 01          	add    $0x1,%rbx
  4018b7:	88 43 ff             	mov    %al,-0x1(%rbx)
  4018ba:	8b 0d 64 38 20 00    	mov    0x203864(%rip),%ecx        # 605124 <gets_cnt>
  4018c0:	81 f9 ff 03 00 00    	cmp    $0x3ff,%ecx
  4018c6:	7f 4a                	jg     401912 <Gets+0x77>
  4018c8:	0f b6 d0             	movzbl %al,%edx
  4018cb:	8d 34 49             	lea    (%rcx,%rcx,2),%esi
  4018ce:	48 63 c6             	movslq %esi,%rax
  4018d1:	89 d7                	mov    %edx,%edi
  4018d3:	c1 ef 04             	shr    $0x4,%edi
  4018d6:	48 63 ff             	movslq %edi,%rdi
  4018d9:	0f b6 bf a0 33 40 00 	movzbl 0x4033a0(%rdi),%edi
  4018e0:	40 88 b8 20 45 60 00 	mov    %dil,0x604520(%rax)
  4018e7:	8d 46 01             	lea    0x1(%rsi),%eax
  4018ea:	48 98                	cltq   
  4018ec:	83 e2 0f             	and    $0xf,%edx
  4018ef:	0f b6 92 a0 33 40 00 	movzbl 0x4033a0(%rdx),%edx
  4018f6:	88 90 20 45 60 00    	mov    %dl,0x604520(%rax)
  4018fc:	83 c6 02             	add    $0x2,%esi
  4018ff:	48 63 f6             	movslq %esi,%rsi
  401902:	c6 86 20 45 60 00 20 	movb   $0x20,0x604520(%rsi)
  401909:	83 c1 01             	add    $0x1,%ecx
  40190c:	89 0d 12 38 20 00    	mov    %ecx,0x203812(%rip)        # 605124 <gets_cnt>
  401912:	48 8b 3d d7 2b 20 00 	mov    0x202bd7(%rip),%rdi        # 6044f0 <infile>
  401919:	e8 42 f4 ff ff       	callq  400d60 <_IO_getc@plt>
  40191e:	83 f8 ff             	cmp    $0xffffffff,%eax
  401921:	74 05                	je     401928 <Gets+0x8d>
  401923:	83 f8 0a             	cmp    $0xa,%eax
  401926:	75 8b                	jne    4018b3 <Gets+0x18>
  401928:	c6 03 00             	movb   $0x0,(%rbx)
  40192b:	8b 05 f3 37 20 00    	mov    0x2037f3(%rip),%eax        # 605124 <gets_cnt>
  401931:	8d 04 40             	lea    (%rax,%rax,2),%eax
  401934:	48 98                	cltq   
  401936:	c6 80 20 45 60 00 00 	movb   $0x0,0x604520(%rax)
  40193d:	48 89 e8             	mov    %rbp,%rax
  401940:	48 83 c4 08          	add    $0x8,%rsp
  401944:	5b                   	pop    %rbx
  401945:	5d                   	pop    %rbp
  401946:	c3                   	retq   

0000000000401947 <notify_server>:
  401947:	83 3d ba 2b 20 00 00 	cmpl   $0x0,0x202bba(%rip)        # 604508 <is_checker>
  40194e:	0f 85 cc 01 00 00    	jne    401b20 <notify_server+0x1d9>
  401954:	48 81 ec 18 40 00 00 	sub    $0x4018,%rsp
  40195b:	8b 05 c3 37 20 00    	mov    0x2037c3(%rip),%eax        # 605124 <gets_cnt>
  401961:	83 c0 64             	add    $0x64,%eax
  401964:	3d 00 20 00 00       	cmp    $0x2000,%eax
  401969:	7e 19                	jle    401984 <notify_server+0x3d>
  40196b:	bf d8 31 40 00       	mov    $0x4031d8,%edi
  401970:	b8 00 00 00 00       	mov    $0x0,%eax
  401975:	e8 06 f3 ff ff       	callq  400c80 <printf@plt>
  40197a:	bf 01 00 00 00       	mov    $0x1,%edi
  40197f:	e8 6c f4 ff ff       	callq  400df0 <exit@plt>
  401984:	44 0f be 0d 9c 37 20 	movsbl 0x20379c(%rip),%r9d        # 605128 <target_prefix>
  40198b:	00 
  40198c:	83 3d 15 2b 20 00 00 	cmpl   $0x0,0x202b15(%rip)        # 6044a8 <notify>
  401993:	b8 ff ff ff ff       	mov    $0xffffffff,%eax
  401998:	0f 45 05 61 2b 20 00 	cmovne 0x202b61(%rip),%eax        # 604500 <authkey>
  40199f:	41 89 c0             	mov    %eax,%r8d
  4019a2:	85 ff                	test   %edi,%edi
  4019a4:	0f 85 f0 00 00 00    	jne    401a9a <notify_server+0x153>
  4019aa:	e9 a9 00 00 00       	jmpq   401a58 <notify_server+0x111>
  4019af:	48 8d 74 24 10       	lea    0x10(%rsp),%rsi
  4019b4:	bf c3 30 40 00       	mov    $0x4030c3,%edi
  4019b9:	b8 00 00 00 00       	mov    $0x0,%eax
  4019be:	e8 bd f2 ff ff       	callq  400c80 <printf@plt>
  4019c3:	bf 01 00 00 00       	mov    $0x1,%edi
  4019c8:	e8 23 f4 ff ff       	callq  400df0 <exit@plt>
  4019cd:	bf 08 32 40 00       	mov    $0x403208,%edi
  4019d2:	e8 79 f2 ff ff       	callq  400c50 <puts@plt>
  4019d7:	bf cf 30 40 00       	mov    $0x4030cf,%edi
  4019dc:	e8 6f f2 ff ff       	callq  400c50 <puts@plt>
  4019e1:	e9 33 01 00 00       	jmpq   401b19 <notify_server+0x1d2>
  4019e6:	be b9 30 40 00       	mov    $0x4030b9,%esi
  4019eb:	bf 40 32 40 00       	mov    $0x403240,%edi
  4019f0:	b8 00 00 00 00       	mov    $0x0,%eax
  4019f5:	e8 86 f2 ff ff       	callq  400c80 <printf@plt>
  4019fa:	48 8b 35 5f 27 20 00 	mov    0x20275f(%rip),%rsi        # 604160 <user_id>
  401a01:	bf d9 30 40 00       	mov    $0x4030d9,%edi
  401a06:	b8 00 00 00 00       	mov    $0x0,%eax
  401a0b:	e8 70 f2 ff ff       	callq  400c80 <printf@plt>
  401a10:	48 8b 35 61 27 20 00 	mov    0x202761(%rip),%rsi        # 604178 <course>
  401a17:	bf e6 30 40 00       	mov    $0x4030e6,%edi
  401a1c:	b8 00 00 00 00       	mov    $0x0,%eax
  401a21:	e8 5a f2 ff ff       	callq  400c80 <printf@plt>
  401a26:	48 8b 35 43 27 20 00 	mov    0x202743(%rip),%rsi        # 604170 <lab>
  401a2d:	bf f2 30 40 00       	mov    $0x4030f2,%edi
  401a32:	b8 00 00 00 00       	mov    $0x0,%eax
  401a37:	e8 44 f2 ff ff       	callq  400c80 <printf@plt>
  401a3c:	48 8d b4 24 10 20 00 	lea    0x2010(%rsp),%rsi
  401a43:	00 
  401a44:	bf fb 30 40 00       	mov    $0x4030fb,%edi
  401a49:	b8 00 00 00 00       	mov    $0x0,%eax
  401a4e:	e8 2d f2 ff ff       	callq  400c80 <printf@plt>
  401a53:	e9 c1 00 00 00       	jmpq   401b19 <notify_server+0x1d2>
  401a58:	48 c7 44 24 08 20 45 	movq   $0x604520,0x8(%rsp)
  401a5f:	60 00 
  401a61:	89 34 24             	mov    %esi,(%rsp)
  401a64:	b9 be 30 40 00       	mov    $0x4030be,%ecx
  401a69:	8b 15 f9 26 20 00    	mov    0x2026f9(%rip),%edx        # 604168 <target_id>
  401a6f:	be 07 31 40 00       	mov    $0x403107,%esi
  401a74:	48 8d bc 24 10 20 00 	lea    0x2010(%rsp),%rdi
  401a7b:	00 
  401a7c:	b8 00 00 00 00       	mov    $0x0,%eax
  401a81:	e8 5a f3 ff ff       	callq  400de0 <sprintf@plt>
  401a86:	be be 30 40 00       	mov    $0x4030be,%esi
  401a8b:	83 3d 16 2a 20 00 00 	cmpl   $0x0,0x202a16(%rip)        # 6044a8 <notify>
  401a92:	0f 84 53 ff ff ff    	je     4019eb <notify_server+0xa4>
  401a98:	eb 75                	jmp    401b0f <notify_server+0x1c8>
  401a9a:	48 c7 44 24 08 20 45 	movq   $0x604520,0x8(%rsp)
  401aa1:	60 00 
  401aa3:	89 34 24             	mov    %esi,(%rsp)
  401aa6:	b9 b9 30 40 00       	mov    $0x4030b9,%ecx
  401aab:	8b 15 b7 26 20 00    	mov    0x2026b7(%rip),%edx        # 604168 <target_id>
  401ab1:	be 07 31 40 00       	mov    $0x403107,%esi
  401ab6:	48 8d bc 24 10 20 00 	lea    0x2010(%rsp),%rdi
  401abd:	00 
  401abe:	b8 00 00 00 00       	mov    $0x0,%eax
  401ac3:	e8 18 f3 ff ff       	callq  400de0 <sprintf@plt>
  401ac8:	83 3d d9 29 20 00 00 	cmpl   $0x0,0x2029d9(%rip)        # 6044a8 <notify>
  401acf:	0f 84 11 ff ff ff    	je     4019e6 <notify_server+0x9f>
  401ad5:	4c 8d 4c 24 10       	lea    0x10(%rsp),%r9
  401ada:	41 b8 00 00 00 00    	mov    $0x0,%r8d
  401ae0:	48 8d 8c 24 10 20 00 	lea    0x2010(%rsp),%rcx
  401ae7:	00 
  401ae8:	48 8b 15 81 26 20 00 	mov    0x202681(%rip),%rdx        # 604170 <lab>
  401aef:	48 8b 35 82 26 20 00 	mov    0x202682(%rip),%rsi        # 604178 <course>
  401af6:	48 8b 3d 63 26 20 00 	mov    0x202663(%rip),%rdi        # 604160 <user_id>
  401afd:	e8 11 0f 00 00       	callq  402a13 <driver_post>
  401b02:	85 c0                	test   %eax,%eax
  401b04:	0f 89 c3 fe ff ff    	jns    4019cd <notify_server+0x86>
  401b0a:	e9 a0 fe ff ff       	jmpq   4019af <notify_server+0x68>
  401b0f:	bf 23 31 40 00       	mov    $0x403123,%edi
  401b14:	e8 37 f1 ff ff       	callq  400c50 <puts@plt>
  401b19:	48 81 c4 18 40 00 00 	add    $0x4018,%rsp
  401b20:	f3 c3                	repz retq 

0000000000401b22 <validate>:
  401b22:	55                   	push   %rbp
  401b23:	53                   	push   %rbx
  401b24:	48 83 ec 08          	sub    $0x8,%rsp
  401b28:	89 fb                	mov    %edi,%ebx
  401b2a:	83 3d d7 29 20 00 00 	cmpl   $0x0,0x2029d7(%rip)        # 604508 <is_checker>
  401b31:	74 5e                	je     401b91 <validate+0x6f>
  401b33:	8b 15 c3 29 20 00    	mov    0x2029c3(%rip),%edx        # 6044fc <vlevel>
  401b39:	39 fa                	cmp    %edi,%edx
  401b3b:	74 14                	je     401b51 <validate+0x2f>
  401b3d:	bf 2a 31 40 00       	mov    $0x40312a,%edi
  401b42:	e8 09 f1 ff ff       	callq  400c50 <puts@plt>
  401b47:	b8 00 00 00 00       	mov    $0x0,%eax
  401b4c:	e8 1b fd ff ff       	callq  40186c <check_fail>
  401b51:	8b 35 a1 29 20 00    	mov    0x2029a1(%rip),%esi        # 6044f8 <check_level>
  401b57:	39 f2                	cmp    %esi,%edx
  401b59:	74 19                	je     401b74 <validate+0x52>
  401b5b:	bf 68 32 40 00       	mov    $0x403268,%edi
  401b60:	b8 00 00 00 00       	mov    $0x0,%eax
  401b65:	e8 16 f1 ff ff       	callq  400c80 <printf@plt>
  401b6a:	b8 00 00 00 00       	mov    $0x0,%eax
  401b6f:	e8 f8 fc ff ff       	callq  40186c <check_fail>
  401b74:	0f be 35 ad 35 20 00 	movsbl 0x2035ad(%rip),%esi        # 605128 <target_prefix>
  401b7b:	b9 20 45 60 00       	mov    $0x604520,%ecx
  401b80:	bf 48 31 40 00       	mov    $0x403148,%edi
  401b85:	b8 00 00 00 00       	mov    $0x0,%eax
  401b8a:	e8 f1 f0 ff ff       	callq  400c80 <printf@plt>
  401b8f:	eb 46                	jmp    401bd7 <validate+0xb5>
  401b91:	8b 2d 65 29 20 00    	mov    0x202965(%rip),%ebp        # 6044fc <vlevel>
  401b97:	39 fd                	cmp    %edi,%ebp
  401b99:	74 18                	je     401bb3 <validate+0x91>
  401b9b:	bf 2a 31 40 00       	mov    $0x40312a,%edi
  401ba0:	e8 ab f0 ff ff       	callq  400c50 <puts@plt>
  401ba5:	89 de                	mov    %ebx,%esi
  401ba7:	bf 00 00 00 00       	mov    $0x0,%edi
  401bac:	e8 96 fd ff ff       	callq  401947 <notify_server>
  401bb1:	eb 24                	jmp    401bd7 <validate+0xb5>
  401bb3:	0f be 15 6e 35 20 00 	movsbl 0x20356e(%rip),%edx        # 605128 <target_prefix>
  401bba:	89 ee                	mov    %ebp,%esi
  401bbc:	bf 90 32 40 00       	mov    $0x403290,%edi
  401bc1:	b8 00 00 00 00       	mov    $0x0,%eax
  401bc6:	e8 b5 f0 ff ff       	callq  400c80 <printf@plt>
  401bcb:	89 ee                	mov    %ebp,%esi
  401bcd:	bf 01 00 00 00       	mov    $0x1,%edi
  401bd2:	e8 70 fd ff ff       	callq  401947 <notify_server>
  401bd7:	48 83 c4 08          	add    $0x8,%rsp
  401bdb:	5b                   	pop    %rbx
  401bdc:	5d                   	pop    %rbp
  401bdd:	c3                   	retq   

0000000000401bde <fail>:
  401bde:	48 83 ec 08          	sub    $0x8,%rsp
  401be2:	83 3d 1f 29 20 00 00 	cmpl   $0x0,0x20291f(%rip)        # 604508 <is_checker>
  401be9:	74 0a                	je     401bf5 <fail+0x17>
  401beb:	b8 00 00 00 00       	mov    $0x0,%eax
  401bf0:	e8 77 fc ff ff       	callq  40186c <check_fail>
  401bf5:	89 fe                	mov    %edi,%esi
  401bf7:	bf 00 00 00 00       	mov    $0x0,%edi
  401bfc:	e8 46 fd ff ff       	callq  401947 <notify_server>
  401c01:	48 83 c4 08          	add    $0x8,%rsp
  401c05:	c3                   	retq   

0000000000401c06 <bushandler>:
  401c06:	48 83 ec 08          	sub    $0x8,%rsp
  401c0a:	83 3d f7 28 20 00 00 	cmpl   $0x0,0x2028f7(%rip)        # 604508 <is_checker>
  401c11:	74 14                	je     401c27 <bushandler+0x21>
  401c13:	bf 5d 31 40 00       	mov    $0x40315d,%edi
  401c18:	e8 33 f0 ff ff       	callq  400c50 <puts@plt>
  401c1d:	b8 00 00 00 00       	mov    $0x0,%eax
  401c22:	e8 45 fc ff ff       	callq  40186c <check_fail>
  401c27:	bf c8 32 40 00       	mov    $0x4032c8,%edi
  401c2c:	e8 1f f0 ff ff       	callq  400c50 <puts@plt>
  401c31:	bf 67 31 40 00       	mov    $0x403167,%edi
  401c36:	e8 15 f0 ff ff       	callq  400c50 <puts@plt>
  401c3b:	be 00 00 00 00       	mov    $0x0,%esi
  401c40:	bf 00 00 00 00       	mov    $0x0,%edi
  401c45:	e8 fd fc ff ff       	callq  401947 <notify_server>
  401c4a:	bf 01 00 00 00       	mov    $0x1,%edi
  401c4f:	e8 9c f1 ff ff       	callq  400df0 <exit@plt>

0000000000401c54 <seghandler>:
  401c54:	48 83 ec 08          	sub    $0x8,%rsp
  401c58:	83 3d a9 28 20 00 00 	cmpl   $0x0,0x2028a9(%rip)        # 604508 <is_checker>
  401c5f:	74 14                	je     401c75 <seghandler+0x21>
  401c61:	bf 7d 31 40 00       	mov    $0x40317d,%edi
  401c66:	e8 e5 ef ff ff       	callq  400c50 <puts@plt>
  401c6b:	b8 00 00 00 00       	mov    $0x0,%eax
  401c70:	e8 f7 fb ff ff       	callq  40186c <check_fail>
  401c75:	bf e8 32 40 00       	mov    $0x4032e8,%edi
  401c7a:	e8 d1 ef ff ff       	callq  400c50 <puts@plt>
  401c7f:	bf 67 31 40 00       	mov    $0x403167,%edi
  401c84:	e8 c7 ef ff ff       	callq  400c50 <puts@plt>
  401c89:	be 00 00 00 00       	mov    $0x0,%esi
  401c8e:	bf 00 00 00 00       	mov    $0x0,%edi
  401c93:	e8 af fc ff ff       	callq  401947 <notify_server>
  401c98:	bf 01 00 00 00       	mov    $0x1,%edi
  401c9d:	e8 4e f1 ff ff       	callq  400df0 <exit@plt>

0000000000401ca2 <illegalhandler>:
  401ca2:	48 83 ec 08          	sub    $0x8,%rsp
  401ca6:	83 3d 5b 28 20 00 00 	cmpl   $0x0,0x20285b(%rip)        # 604508 <is_checker>
  401cad:	74 14                	je     401cc3 <illegalhandler+0x21>
  401caf:	bf 90 31 40 00       	mov    $0x403190,%edi
  401cb4:	e8 97 ef ff ff       	callq  400c50 <puts@plt>
  401cb9:	b8 00 00 00 00       	mov    $0x0,%eax
  401cbe:	e8 a9 fb ff ff       	callq  40186c <check_fail>
  401cc3:	bf 10 33 40 00       	mov    $0x403310,%edi
  401cc8:	e8 83 ef ff ff       	callq  400c50 <puts@plt>
  401ccd:	bf 67 31 40 00       	mov    $0x403167,%edi
  401cd2:	e8 79 ef ff ff       	callq  400c50 <puts@plt>
  401cd7:	be 00 00 00 00       	mov    $0x0,%esi
  401cdc:	bf 00 00 00 00       	mov    $0x0,%edi
  401ce1:	e8 61 fc ff ff       	callq  401947 <notify_server>
  401ce6:	bf 01 00 00 00       	mov    $0x1,%edi
  401ceb:	e8 00 f1 ff ff       	callq  400df0 <exit@plt>

0000000000401cf0 <sigalrmhandler>:
  401cf0:	48 83 ec 08          	sub    $0x8,%rsp
  401cf4:	83 3d 0d 28 20 00 00 	cmpl   $0x0,0x20280d(%rip)        # 604508 <is_checker>
  401cfb:	74 14                	je     401d11 <sigalrmhandler+0x21>
  401cfd:	bf a4 31 40 00       	mov    $0x4031a4,%edi
  401d02:	e8 49 ef ff ff       	callq  400c50 <puts@plt>
  401d07:	b8 00 00 00 00       	mov    $0x0,%eax
  401d0c:	e8 5b fb ff ff       	callq  40186c <check_fail>
  401d11:	be 05 00 00 00       	mov    $0x5,%esi
  401d16:	bf 40 33 40 00       	mov    $0x403340,%edi
  401d1b:	b8 00 00 00 00       	mov    $0x0,%eax
  401d20:	e8 5b ef ff ff       	callq  400c80 <printf@plt>
  401d25:	be 00 00 00 00       	mov    $0x0,%esi
  401d2a:	bf 00 00 00 00       	mov    $0x0,%edi
  401d2f:	e8 13 fc ff ff       	callq  401947 <notify_server>
  401d34:	bf 01 00 00 00       	mov    $0x1,%edi
  401d39:	e8 b2 f0 ff ff       	callq  400df0 <exit@plt>

0000000000401d3e <launch>:
  401d3e:	55                   	push   %rbp
  401d3f:	48 89 e5             	mov    %rsp,%rbp
  401d42:	48 89 fa             	mov    %rdi,%rdx
  401d45:	48 8d 47 1e          	lea    0x1e(%rdi),%rax
  401d49:	48 83 e0 f0          	and    $0xfffffffffffffff0,%rax
  401d4d:	48 29 c4             	sub    %rax,%rsp
  401d50:	48 8d 7c 24 0f       	lea    0xf(%rsp),%rdi
  401d55:	48 83 e7 f0          	and    $0xfffffffffffffff0,%rdi
  401d59:	be f4 00 00 00       	mov    $0xf4,%esi
  401d5e:	e8 2d ef ff ff       	callq  400c90 <memset@plt>
  401d63:	48 8b 05 56 27 20 00 	mov    0x202756(%rip),%rax        # 6044c0 <stdin@@GLIBC_2.2.5>
  401d6a:	48 39 05 7f 27 20 00 	cmp    %rax,0x20277f(%rip)        # 6044f0 <infile>
  401d71:	75 0f                	jne    401d82 <launch+0x44>
  401d73:	bf ac 31 40 00       	mov    $0x4031ac,%edi
  401d78:	b8 00 00 00 00       	mov    $0x0,%eax
  401d7d:	e8 fe ee ff ff       	callq  400c80 <printf@plt>
  401d82:	c7 05 70 27 20 00 00 	movl   $0x0,0x202770(%rip)        # 6044fc <vlevel>
  401d89:	00 00 00 
  401d8c:	b8 00 00 00 00       	mov    $0x0,%eax
  401d91:	e8 b2 fa ff ff       	callq  401848 <test>
  401d96:	83 3d 6b 27 20 00 00 	cmpl   $0x0,0x20276b(%rip)        # 604508 <is_checker>
  401d9d:	74 14                	je     401db3 <launch+0x75>
  401d9f:	bf b9 31 40 00       	mov    $0x4031b9,%edi
  401da4:	e8 a7 ee ff ff       	callq  400c50 <puts@plt>
  401da9:	b8 00 00 00 00       	mov    $0x0,%eax
  401dae:	e8 b9 fa ff ff       	callq  40186c <check_fail>
  401db3:	bf c4 31 40 00       	mov    $0x4031c4,%edi
  401db8:	e8 93 ee ff ff       	callq  400c50 <puts@plt>
  401dbd:	c9                   	leaveq 
  401dbe:	c3                   	retq   

0000000000401dbf <stable_launch>:
  401dbf:	48 83 ec 08          	sub    $0x8,%rsp
  401dc3:	48 89 3d 1e 27 20 00 	mov    %rdi,0x20271e(%rip)        # 6044e8 <global_offset>
  401dca:	41 b9 00 00 00 00    	mov    $0x0,%r9d
  401dd0:	41 b8 00 00 00 00    	mov    $0x0,%r8d
  401dd6:	b9 32 01 00 00       	mov    $0x132,%ecx
  401ddb:	ba 07 00 00 00       	mov    $0x7,%edx
  401de0:	be 00 00 10 00       	mov    $0x100000,%esi
  401de5:	bf 00 60 58 55       	mov    $0x55586000,%edi
  401dea:	e8 81 ee ff ff       	callq  400c70 <mmap@plt>
  401def:	48 3d 00 60 58 55    	cmp    $0x55586000,%rax
  401df5:	74 32                	je     401e29 <stable_launch+0x6a>
  401df7:	be 00 00 10 00       	mov    $0x100000,%esi
  401dfc:	48 89 c7             	mov    %rax,%rdi
  401dff:	e8 7c ef ff ff       	callq  400d80 <munmap@plt>
  401e04:	ba 00 60 58 55       	mov    $0x55586000,%edx
  401e09:	be 78 33 40 00       	mov    $0x403378,%esi
  401e0e:	48 8b 3d bb 26 20 00 	mov    0x2026bb(%rip),%rdi        # 6044d0 <stderr@@GLIBC_2.2.5>
  401e15:	b8 00 00 00 00       	mov    $0x0,%eax
  401e1a:	e8 e1 ee ff ff       	callq  400d00 <fprintf@plt>
  401e1f:	bf 01 00 00 00       	mov    $0x1,%edi
  401e24:	e8 c7 ef ff ff       	callq  400df0 <exit@plt>
  401e29:	48 c7 05 fc 32 20 00 	movq   $0x55685ff8,0x2032fc(%rip)        # 605130 <stack_top>
  401e30:	f8 5f 68 55 
  401e34:	ba f8 5f 68 55       	mov    $0x55685ff8,%edx
  401e39:	48 89 e0             	mov    %rsp,%rax
  401e3c:	48 89 d4             	mov    %rdx,%rsp
  401e3f:	48 89 c2             	mov    %rax,%rdx
  401e42:	48 89 15 97 26 20 00 	mov    %rdx,0x202697(%rip)        # 6044e0 <global_save_stack>
  401e49:	48 8b 3d 98 26 20 00 	mov    0x202698(%rip),%rdi        # 6044e8 <global_offset>
  401e50:	e8 e9 fe ff ff       	callq  401d3e <launch>
  401e55:	48 8b 05 84 26 20 00 	mov    0x202684(%rip),%rax        # 6044e0 <global_save_stack>
  401e5c:	48 89 c4             	mov    %rax,%rsp
  401e5f:	be 00 00 10 00       	mov    $0x100000,%esi
  401e64:	bf 00 60 58 55       	mov    $0x55586000,%edi
  401e69:	e8 12 ef ff ff       	callq  400d80 <munmap@plt>
  401e6e:	48 83 c4 08          	add    $0x8,%rsp
  401e72:	c3                   	retq   
  401e73:	66 2e 0f 1f 84 00 00 	nopw   %cs:0x0(%rax,%rax,1)
  401e7a:	00 00 00 
  401e7d:	0f 1f 00             	nopl   (%rax)

0000000000401e80 <sigalrm_handler>:
  401e80:	48 83 ec 08          	sub    $0x8,%rsp
  401e84:	ba 00 00 00 00       	mov    $0x0,%edx
  401e89:	be b0 33 40 00       	mov    $0x4033b0,%esi
  401e8e:	48 8b 3d 3b 26 20 00 	mov    0x20263b(%rip),%rdi        # 6044d0 <stderr@@GLIBC_2.2.5>
  401e95:	b8 00 00 00 00       	mov    $0x0,%eax
  401e9a:	e8 61 ee ff ff       	callq  400d00 <fprintf@plt>
  401e9f:	bf 01 00 00 00       	mov    $0x1,%edi
  401ea4:	e8 47 ef ff ff       	callq  400df0 <exit@plt>

0000000000401ea9 <rio_readlineb>:
  401ea9:	41 57                	push   %r15
  401eab:	41 56                	push   %r14
  401ead:	41 55                	push   %r13
  401eaf:	41 54                	push   %r12
  401eb1:	55                   	push   %rbp
  401eb2:	53                   	push   %rbx
  401eb3:	48 83 ec 38          	sub    $0x38,%rsp
  401eb7:	49 89 f6             	mov    %rsi,%r14
  401eba:	48 89 54 24 18       	mov    %rdx,0x18(%rsp)
  401ebf:	48 83 fa 01          	cmp    $0x1,%rdx
  401ec3:	0f 86 bd 00 00 00    	jbe    401f86 <rio_readlineb+0xdd>
  401ec9:	48 89 fb             	mov    %rdi,%rbx
  401ecc:	41 bd 01 00 00 00    	mov    $0x1,%r13d
  401ed2:	4c 8d 67 10          	lea    0x10(%rdi),%r12
  401ed6:	eb 2e                	jmp    401f06 <rio_readlineb+0x5d>
  401ed8:	ba 00 20 00 00       	mov    $0x2000,%edx
  401edd:	4c 89 e6             	mov    %r12,%rsi
  401ee0:	8b 3b                	mov    (%rbx),%edi
  401ee2:	e8 d9 ed ff ff       	callq  400cc0 <read@plt>
  401ee7:	89 43 04             	mov    %eax,0x4(%rbx)
  401eea:	85 c0                	test   %eax,%eax
  401eec:	79 0f                	jns    401efd <rio_readlineb+0x54>
  401eee:	e8 1d ed ff ff       	callq  400c10 <__errno_location@plt>
  401ef3:	83 38 04             	cmpl   $0x4,(%rax)
  401ef6:	74 0e                	je     401f06 <rio_readlineb+0x5d>
  401ef8:	e9 98 00 00 00       	jmpq   401f95 <rio_readlineb+0xec>
  401efd:	85 c0                	test   %eax,%eax
  401eff:	90                   	nop
  401f00:	74 6c                	je     401f6e <rio_readlineb+0xc5>
  401f02:	4c 89 63 08          	mov    %r12,0x8(%rbx)
  401f06:	8b 6b 04             	mov    0x4(%rbx),%ebp
  401f09:	85 ed                	test   %ebp,%ebp
  401f0b:	7e cb                	jle    401ed8 <rio_readlineb+0x2f>
  401f0d:	85 ed                	test   %ebp,%ebp
  401f0f:	41 0f 95 c7          	setne  %r15b
  401f13:	41 0f b6 c7          	movzbl %r15b,%eax
  401f17:	89 44 24 0c          	mov    %eax,0xc(%rsp)
  401f1b:	45 0f b6 ff          	movzbl %r15b,%r15d
  401f1f:	48 8b 4b 08          	mov    0x8(%rbx),%rcx
  401f23:	4c 89 fa             	mov    %r15,%rdx
  401f26:	48 89 4c 24 10       	mov    %rcx,0x10(%rsp)
  401f2b:	48 89 ce             	mov    %rcx,%rsi
  401f2e:	48 8d 7c 24 2f       	lea    0x2f(%rsp),%rdi
  401f33:	e8 f8 ed ff ff       	callq  400d30 <memcpy@plt>
  401f38:	4c 03 7c 24 10       	add    0x10(%rsp),%r15
  401f3d:	4c 89 7b 08          	mov    %r15,0x8(%rbx)
  401f41:	8b 44 24 0c          	mov    0xc(%rsp),%eax
  401f45:	29 c5                	sub    %eax,%ebp
  401f47:	89 6b 04             	mov    %ebp,0x4(%rbx)
  401f4a:	83 f8 01             	cmp    $0x1,%eax
  401f4d:	75 13                	jne    401f62 <rio_readlineb+0xb9>
  401f4f:	49 83 c6 01          	add    $0x1,%r14
  401f53:	0f b6 44 24 2f       	movzbl 0x2f(%rsp),%eax
  401f58:	41 88 46 ff          	mov    %al,-0x1(%r14)
  401f5c:	3c 0a                	cmp    $0xa,%al
  401f5e:	75 19                	jne    401f79 <rio_readlineb+0xd0>
  401f60:	eb 2a                	jmp    401f8c <rio_readlineb+0xe3>
  401f62:	83 7c 24 0c 00       	cmpl   $0x0,0xc(%rsp)
  401f67:	75 35                	jne    401f9e <rio_readlineb+0xf5>
  401f69:	4c 89 e8             	mov    %r13,%rax
  401f6c:	eb 03                	jmp    401f71 <rio_readlineb+0xc8>
  401f6e:	4c 89 e8             	mov    %r13,%rax
  401f71:	48 83 f8 01          	cmp    $0x1,%rax
  401f75:	75 15                	jne    401f8c <rio_readlineb+0xe3>
  401f77:	eb 2e                	jmp    401fa7 <rio_readlineb+0xfe>
  401f79:	49 83 c5 01          	add    $0x1,%r13
  401f7d:	4c 3b 6c 24 18       	cmp    0x18(%rsp),%r13
  401f82:	74 08                	je     401f8c <rio_readlineb+0xe3>
  401f84:	eb 80                	jmp    401f06 <rio_readlineb+0x5d>
  401f86:	41 bd 01 00 00 00    	mov    $0x1,%r13d
  401f8c:	41 c6 06 00          	movb   $0x0,(%r14)
  401f90:	4c 89 e8             	mov    %r13,%rax
  401f93:	eb 17                	jmp    401fac <rio_readlineb+0x103>
  401f95:	48 c7 c0 ff ff ff ff 	mov    $0xffffffffffffffff,%rax
  401f9c:	eb 0e                	jmp    401fac <rio_readlineb+0x103>
  401f9e:	48 c7 c0 ff ff ff ff 	mov    $0xffffffffffffffff,%rax
  401fa5:	eb 05                	jmp    401fac <rio_readlineb+0x103>
  401fa7:	b8 00 00 00 00       	mov    $0x0,%eax
  401fac:	48 83 c4 38          	add    $0x38,%rsp
  401fb0:	5b                   	pop    %rbx
  401fb1:	5d                   	pop    %rbp
  401fb2:	41 5c                	pop    %r12
  401fb4:	41 5d                	pop    %r13
  401fb6:	41 5e                	pop    %r14
  401fb8:	41 5f                	pop    %r15
  401fba:	c3                   	retq   

0000000000401fbb <submitr>:
  401fbb:	41 57                	push   %r15
  401fbd:	41 56                	push   %r14
  401fbf:	41 55                	push   %r13
  401fc1:	41 54                	push   %r12
  401fc3:	55                   	push   %rbp
  401fc4:	53                   	push   %rbx
  401fc5:	48 81 ec 58 a0 00 00 	sub    $0xa058,%rsp
  401fcc:	49 89 ff             	mov    %rdi,%r15
  401fcf:	89 f5                	mov    %esi,%ebp
  401fd1:	48 89 14 24          	mov    %rdx,(%rsp)
  401fd5:	48 89 4c 24 08       	mov    %rcx,0x8(%rsp)
  401fda:	4d 89 c5             	mov    %r8,%r13
  401fdd:	4c 89 cb             	mov    %r9,%rbx
  401fe0:	4c 8b b4 24 90 a0 00 	mov    0xa090(%rsp),%r14
  401fe7:	00 
  401fe8:	c7 84 24 2c 20 00 00 	movl   $0x0,0x202c(%rsp)
  401fef:	00 00 00 00 
  401ff3:	ba 00 00 00 00       	mov    $0x0,%edx
  401ff8:	be 01 00 00 00       	mov    $0x1,%esi
  401ffd:	bf 02 00 00 00       	mov    $0x2,%edi
  402002:	e8 09 ee ff ff       	callq  400e10 <socket@plt>
  402007:	41 89 c4             	mov    %eax,%r12d
  40200a:	85 c0                	test   %eax,%eax
  40200c:	79 50                	jns    40205e <submitr+0xa3>
  40200e:	48 b8 45 72 72 6f 72 	movabs $0x43203a726f727245,%rax
  402015:	3a 20 43 
  402018:	49 89 06             	mov    %rax,(%r14)
  40201b:	48 b8 6c 69 65 6e 74 	movabs $0x6e7520746e65696c,%rax
  402022:	20 75 6e 
  402025:	49 89 46 08          	mov    %rax,0x8(%r14)
  402029:	48 b8 61 62 6c 65 20 	movabs $0x206f7420656c6261,%rax
  402030:	74 6f 20 
  402033:	49 89 46 10          	mov    %rax,0x10(%r14)
  402037:	48 b8 63 72 65 61 74 	movabs $0x7320657461657263,%rax
  40203e:	65 20 73 
  402041:	49 89 46 18          	mov    %rax,0x18(%r14)
  402045:	41 c7 46 20 6f 63 6b 	movl   $0x656b636f,0x20(%r14)
  40204c:	65 
  40204d:	66 41 c7 46 24 74 00 	movw   $0x74,0x24(%r14)
  402054:	b8 ff ff ff ff       	mov    $0xffffffff,%eax
  402059:	e9 b3 07 00 00       	jmpq   402811 <submitr+0x856>
  40205e:	4c 89 ff             	mov    %r15,%rdi
  402061:	e8 8a ec ff ff       	callq  400cf0 <gethostbyname@plt>
  402066:	48 85 c0             	test   %rax,%rax
  402069:	75 6b                	jne    4020d6 <submitr+0x11b>
  40206b:	48 b8 45 72 72 6f 72 	movabs $0x44203a726f727245,%rax
  402072:	3a 20 44 
  402075:	49 89 06             	mov    %rax,(%r14)
  402078:	48 b8 4e 53 20 69 73 	movabs $0x6e7520736920534e,%rax
  40207f:	20 75 6e 
  402082:	49 89 46 08          	mov    %rax,0x8(%r14)
  402086:	48 b8 61 62 6c 65 20 	movabs $0x206f7420656c6261,%rax
  40208d:	74 6f 20 
  402090:	49 89 46 10          	mov    %rax,0x10(%r14)
  402094:	48 b8 72 65 73 6f 6c 	movabs $0x2065766c6f736572,%rax
  40209b:	76 65 20 
  40209e:	49 89 46 18          	mov    %rax,0x18(%r14)
  4020a2:	48 b8 73 65 72 76 65 	movabs $0x6120726576726573,%rax
  4020a9:	72 20 61 
  4020ac:	49 89 46 20          	mov    %rax,0x20(%r14)
  4020b0:	41 c7 46 28 64 64 72 	movl   $0x65726464,0x28(%r14)
  4020b7:	65 
  4020b8:	66 41 c7 46 2c 73 73 	movw   $0x7373,0x2c(%r14)
  4020bf:	41 c6 46 2e 00       	movb   $0x0,0x2e(%r14)
  4020c4:	44 89 e7             	mov    %r12d,%edi
  4020c7:	e8 e4 eb ff ff       	callq  400cb0 <close@plt>
  4020cc:	b8 ff ff ff ff       	mov    $0xffffffff,%eax
  4020d1:	e9 3b 07 00 00       	jmpq   402811 <submitr+0x856>
  4020d6:	48 c7 84 24 40 a0 00 	movq   $0x0,0xa040(%rsp)
  4020dd:	00 00 00 00 00 
  4020e2:	48 c7 84 24 48 a0 00 	movq   $0x0,0xa048(%rsp)
  4020e9:	00 00 00 00 00 
  4020ee:	66 c7 84 24 40 a0 00 	movw   $0x2,0xa040(%rsp)
  4020f5:	00 02 00 
  4020f8:	48 63 50 14          	movslq 0x14(%rax),%rdx
  4020fc:	48 8d b4 24 44 a0 00 	lea    0xa044(%rsp),%rsi
  402103:	00 
  402104:	48 8b 40 18          	mov    0x18(%rax),%rax
  402108:	48 8b 38             	mov    (%rax),%rdi
  40210b:	e8 80 ec ff ff       	callq  400d90 <bcopy@plt>
  402110:	66 c1 cd 08          	ror    $0x8,%bp
  402114:	66 89 ac 24 42 a0 00 	mov    %bp,0xa042(%rsp)
  40211b:	00 
  40211c:	ba 10 00 00 00       	mov    $0x10,%edx
  402121:	48 8d b4 24 40 a0 00 	lea    0xa040(%rsp),%rsi
  402128:	00 
  402129:	44 89 e7             	mov    %r12d,%edi
  40212c:	e8 cf ec ff ff       	callq  400e00 <connect@plt>
  402131:	85 c0                	test   %eax,%eax
  402133:	79 5d                	jns    402192 <submitr+0x1d7>
  402135:	48 b8 45 72 72 6f 72 	movabs $0x55203a726f727245,%rax
  40213c:	3a 20 55 
  40213f:	49 89 06             	mov    %rax,(%r14)
  402142:	48 b8 6e 61 62 6c 65 	movabs $0x6f7420656c62616e,%rax
  402149:	20 74 6f 
  40214c:	49 89 46 08          	mov    %rax,0x8(%r14)
  402150:	48 b8 20 63 6f 6e 6e 	movabs $0x7463656e6e6f6320,%rax
  402157:	65 63 74 
  40215a:	49 89 46 10          	mov    %rax,0x10(%r14)
  40215e:	48 b8 20 74 6f 20 74 	movabs $0x20656874206f7420,%rax
  402165:	68 65 20 
  402168:	49 89 46 18          	mov    %rax,0x18(%r14)
  40216c:	41 c7 46 20 73 65 72 	movl   $0x76726573,0x20(%r14)
  402173:	76 
  402174:	66 41 c7 46 24 65 72 	movw   $0x7265,0x24(%r14)
  40217b:	41 c6 46 26 00       	movb   $0x0,0x26(%r14)
  402180:	44 89 e7             	mov    %r12d,%edi
  402183:	e8 28 eb ff ff       	callq  400cb0 <close@plt>
  402188:	b8 ff ff ff ff       	mov    $0xffffffff,%eax
  40218d:	e9 7f 06 00 00       	jmpq   402811 <submitr+0x856>
  402192:	48 c7 c2 ff ff ff ff 	mov    $0xffffffffffffffff,%rdx
  402199:	48 89 df             	mov    %rbx,%rdi
  40219c:	b8 00 00 00 00       	mov    $0x0,%eax
  4021a1:	48 89 d1             	mov    %rdx,%rcx
  4021a4:	f2 ae                	repnz scas %es:(%rdi),%al
  4021a6:	48 f7 d1             	not    %rcx
  4021a9:	48 89 ce             	mov    %rcx,%rsi
  4021ac:	48 8b 3c 24          	mov    (%rsp),%rdi
  4021b0:	48 89 d1             	mov    %rdx,%rcx
  4021b3:	f2 ae                	repnz scas %es:(%rdi),%al
  4021b5:	49 89 c8             	mov    %rcx,%r8
  4021b8:	48 8b 7c 24 08       	mov    0x8(%rsp),%rdi
  4021bd:	48 89 d1             	mov    %rdx,%rcx
  4021c0:	f2 ae                	repnz scas %es:(%rdi),%al
  4021c2:	48 f7 d1             	not    %rcx
  4021c5:	49 89 c9             	mov    %rcx,%r9
  4021c8:	4c 89 ef             	mov    %r13,%rdi
  4021cb:	48 89 d1             	mov    %rdx,%rcx
  4021ce:	f2 ae                	repnz scas %es:(%rdi),%al
  4021d0:	4d 29 c1             	sub    %r8,%r9
  4021d3:	49 29 c9             	sub    %rcx,%r9
  4021d6:	48 8d 44 76 fd       	lea    -0x3(%rsi,%rsi,2),%rax
  4021db:	49 8d 44 01 7b       	lea    0x7b(%r9,%rax,1),%rax
  4021e0:	48 3d 00 20 00 00    	cmp    $0x2000,%rax
  4021e6:	76 73                	jbe    40225b <submitr+0x2a0>
  4021e8:	48 b8 45 72 72 6f 72 	movabs $0x52203a726f727245,%rax
  4021ef:	3a 20 52 
  4021f2:	49 89 06             	mov    %rax,(%r14)
  4021f5:	48 b8 65 73 75 6c 74 	movabs $0x747320746c757365,%rax
  4021fc:	20 73 74 
  4021ff:	49 89 46 08          	mov    %rax,0x8(%r14)
  402203:	48 b8 72 69 6e 67 20 	movabs $0x6f6f7420676e6972,%rax
  40220a:	74 6f 6f 
  40220d:	49 89 46 10          	mov    %rax,0x10(%r14)
  402211:	48 b8 20 6c 61 72 67 	movabs $0x202e656772616c20,%rax
  402218:	65 2e 20 
  40221b:	49 89 46 18          	mov    %rax,0x18(%r14)
  40221f:	48 b8 49 6e 63 72 65 	movabs $0x6573616572636e49,%rax
  402226:	61 73 65 
  402229:	49 89 46 20          	mov    %rax,0x20(%r14)
  40222d:	48 b8 20 53 55 42 4d 	movabs $0x5254494d42555320,%rax
  402234:	49 54 52 
  402237:	49 89 46 28          	mov    %rax,0x28(%r14)
  40223b:	48 b8 5f 4d 41 58 42 	movabs $0x46554258414d5f,%rax
  402242:	55 46 00 
  402245:	49 89 46 30          	mov    %rax,0x30(%r14)
  402249:	44 89 e7             	mov    %r12d,%edi
  40224c:	e8 5f ea ff ff       	callq  400cb0 <close@plt>
  402251:	b8 ff ff ff ff       	mov    $0xffffffff,%eax
  402256:	e9 b6 05 00 00       	jmpq   402811 <submitr+0x856>
  40225b:	48 8d 94 24 30 40 00 	lea    0x4030(%rsp),%rdx
  402262:	00 
  402263:	b9 00 04 00 00       	mov    $0x400,%ecx
  402268:	b8 00 00 00 00       	mov    $0x0,%eax
  40226d:	48 89 d7             	mov    %rdx,%rdi
  402270:	f3 48 ab             	rep stos %rax,%es:(%rdi)
  402273:	48 89 df             	mov    %rbx,%rdi
  402276:	48 c7 c1 ff ff ff ff 	mov    $0xffffffffffffffff,%rcx
  40227d:	f2 ae                	repnz scas %es:(%rdi),%al
  40227f:	48 f7 d1             	not    %rcx
  402282:	48 83 e9 01          	sub    $0x1,%rcx
  402286:	85 c9                	test   %ecx,%ecx
  402288:	0f 84 50 04 00 00    	je     4026de <submitr+0x723>
  40228e:	8d 41 ff             	lea    -0x1(%rcx),%eax
  402291:	4c 8d 6c 03 01       	lea    0x1(%rbx,%rax,1),%r13
  402296:	48 89 d5             	mov    %rdx,%rbp
  402299:	0f b6 13             	movzbl (%rbx),%edx
  40229c:	80 fa 2a             	cmp    $0x2a,%dl
  40229f:	74 1f                	je     4022c0 <submitr+0x305>
  4022a1:	8d 42 d3             	lea    -0x2d(%rdx),%eax
  4022a4:	3c 01                	cmp    $0x1,%al
  4022a6:	76 18                	jbe    4022c0 <submitr+0x305>
  4022a8:	80 fa 5f             	cmp    $0x5f,%dl
  4022ab:	74 13                	je     4022c0 <submitr+0x305>
  4022ad:	8d 42 d0             	lea    -0x30(%rdx),%eax
  4022b0:	3c 09                	cmp    $0x9,%al
  4022b2:	76 0c                	jbe    4022c0 <submitr+0x305>
  4022b4:	89 d0                	mov    %edx,%eax
  4022b6:	83 e0 df             	and    $0xffffffdf,%eax
  4022b9:	83 e8 41             	sub    $0x41,%eax
  4022bc:	3c 19                	cmp    $0x19,%al
  4022be:	77 09                	ja     4022c9 <submitr+0x30e>
  4022c0:	48 8d 45 01          	lea    0x1(%rbp),%rax
  4022c4:	88 55 00             	mov    %dl,0x0(%rbp)
  4022c7:	eb 52                	jmp    40231b <submitr+0x360>
  4022c9:	80 fa 20             	cmp    $0x20,%dl
  4022cc:	75 0a                	jne    4022d8 <submitr+0x31d>
  4022ce:	48 8d 45 01          	lea    0x1(%rbp),%rax
  4022d2:	c6 45 00 2b          	movb   $0x2b,0x0(%rbp)
  4022d6:	eb 43                	jmp    40231b <submitr+0x360>
  4022d8:	8d 42 e0             	lea    -0x20(%rdx),%eax
  4022db:	3c 5f                	cmp    $0x5f,%al
  4022dd:	76 09                	jbe    4022e8 <submitr+0x32d>
  4022df:	80 fa 09             	cmp    $0x9,%dl
  4022e2:	0f 85 57 04 00 00    	jne    40273f <submitr+0x784>
  4022e8:	0f b6 d2             	movzbl %dl,%edx
  4022eb:	be 48 34 40 00       	mov    $0x403448,%esi
  4022f0:	48 8d 7c 24 10       	lea    0x10(%rsp),%rdi
  4022f5:	b8 00 00 00 00       	mov    $0x0,%eax
  4022fa:	e8 e1 ea ff ff       	callq  400de0 <sprintf@plt>
  4022ff:	0f b6 44 24 10       	movzbl 0x10(%rsp),%eax
  402304:	88 45 00             	mov    %al,0x0(%rbp)
  402307:	0f b6 44 24 11       	movzbl 0x11(%rsp),%eax
  40230c:	88 45 01             	mov    %al,0x1(%rbp)
  40230f:	48 8d 45 03          	lea    0x3(%rbp),%rax
  402313:	0f b6 54 24 12       	movzbl 0x12(%rsp),%edx
  402318:	88 55 02             	mov    %dl,0x2(%rbp)
  40231b:	48 83 c3 01          	add    $0x1,%rbx
  40231f:	4c 39 eb             	cmp    %r13,%rbx
  402322:	0f 84 b6 03 00 00    	je     4026de <submitr+0x723>
  402328:	48 89 c5             	mov    %rax,%rbp
  40232b:	e9 69 ff ff ff       	jmpq   402299 <submitr+0x2de>
  402330:	48 89 da             	mov    %rbx,%rdx
  402333:	48 89 ee             	mov    %rbp,%rsi
  402336:	44 89 e7             	mov    %r12d,%edi
  402339:	e8 22 e9 ff ff       	callq  400c60 <write@plt>
  40233e:	48 85 c0             	test   %rax,%rax
  402341:	7f 0f                	jg     402352 <submitr+0x397>
  402343:	e8 c8 e8 ff ff       	callq  400c10 <__errno_location@plt>
  402348:	83 38 04             	cmpl   $0x4,(%rax)
  40234b:	75 12                	jne    40235f <submitr+0x3a4>
  40234d:	b8 00 00 00 00       	mov    $0x0,%eax
  402352:	48 01 c5             	add    %rax,%rbp
  402355:	48 29 c3             	sub    %rax,%rbx
  402358:	75 d6                	jne    402330 <submitr+0x375>
  40235a:	4d 85 ed             	test   %r13,%r13
  40235d:	79 71                	jns    4023d0 <submitr+0x415>
  40235f:	48 b8 45 72 72 6f 72 	movabs $0x43203a726f727245,%rax
  402366:	3a 20 43 
  402369:	49 89 06             	mov    %rax,(%r14)
  40236c:	48 b8 6c 69 65 6e 74 	movabs $0x6e7520746e65696c,%rax
  402373:	20 75 6e 
  402376:	49 89 46 08          	mov    %rax,0x8(%r14)
  40237a:	48 b8 61 62 6c 65 20 	movabs $0x206f7420656c6261,%rax
  402381:	74 6f 20 
  402384:	49 89 46 10          	mov    %rax,0x10(%r14)
  402388:	48 b8 77 72 69 74 65 	movabs $0x6f74206574697277,%rax
  40238f:	20 74 6f 
  402392:	49 89 46 18          	mov    %rax,0x18(%r14)
  402396:	48 b8 20 74 68 65 20 	movabs $0x7365722065687420,%rax
  40239d:	72 65 73 
  4023a0:	49 89 46 20          	mov    %rax,0x20(%r14)
  4023a4:	48 b8 75 6c 74 20 73 	movabs $0x7672657320746c75,%rax
  4023ab:	65 72 76 
  4023ae:	49 89 46 28          	mov    %rax,0x28(%r14)
  4023b2:	66 41 c7 46 30 65 72 	movw   $0x7265,0x30(%r14)
  4023b9:	41 c6 46 32 00       	movb   $0x0,0x32(%r14)
  4023be:	44 89 e7             	mov    %r12d,%edi
  4023c1:	e8 ea e8 ff ff       	callq  400cb0 <close@plt>
  4023c6:	b8 ff ff ff ff       	mov    $0xffffffff,%eax
  4023cb:	e9 41 04 00 00       	jmpq   402811 <submitr+0x856>
  4023d0:	44 89 a4 24 30 80 00 	mov    %r12d,0x8030(%rsp)
  4023d7:	00 
  4023d8:	c7 84 24 34 80 00 00 	movl   $0x0,0x8034(%rsp)
  4023df:	00 00 00 00 
  4023e3:	48 8d 84 24 40 80 00 	lea    0x8040(%rsp),%rax
  4023ea:	00 
  4023eb:	48 89 84 24 38 80 00 	mov    %rax,0x8038(%rsp)
  4023f2:	00 
  4023f3:	ba 00 20 00 00       	mov    $0x2000,%edx
  4023f8:	48 8d b4 24 30 60 00 	lea    0x6030(%rsp),%rsi
  4023ff:	00 
  402400:	48 8d bc 24 30 80 00 	lea    0x8030(%rsp),%rdi
  402407:	00 
  402408:	e8 9c fa ff ff       	callq  401ea9 <rio_readlineb>
  40240d:	48 85 c0             	test   %rax,%rax
  402410:	0f 8f 80 00 00 00    	jg     402496 <submitr+0x4db>
  402416:	48 b8 45 72 72 6f 72 	movabs $0x43203a726f727245,%rax
  40241d:	3a 20 43 
  402420:	49 89 06             	mov    %rax,(%r14)
  402423:	48 b8 6c 69 65 6e 74 	movabs $0x6e7520746e65696c,%rax
  40242a:	20 75 6e 
  40242d:	49 89 46 08          	mov    %rax,0x8(%r14)
  402431:	48 b8 61 62 6c 65 20 	movabs $0x206f7420656c6261,%rax
  402438:	74 6f 20 
  40243b:	49 89 46 10          	mov    %rax,0x10(%r14)
  40243f:	48 b8 72 65 61 64 20 	movabs $0x7269662064616572,%rax
  402446:	66 69 72 
  402449:	49 89 46 18          	mov    %rax,0x18(%r14)
  40244d:	48 b8 73 74 20 68 65 	movabs $0x6564616568207473,%rax
  402454:	61 64 65 
  402457:	49 89 46 20          	mov    %rax,0x20(%r14)
  40245b:	48 b8 72 20 66 72 6f 	movabs $0x72206d6f72662072,%rax
  402462:	6d 20 72 
  402465:	49 89 46 28          	mov    %rax,0x28(%r14)
  402469:	48 b8 65 73 75 6c 74 	movabs $0x657320746c757365,%rax
  402470:	20 73 65 
  402473:	49 89 46 30          	mov    %rax,0x30(%r14)
  402477:	41 c7 46 38 72 76 65 	movl   $0x72657672,0x38(%r14)
  40247e:	72 
  40247f:	41 c6 46 3c 00       	movb   $0x0,0x3c(%r14)
  402484:	44 89 e7             	mov    %r12d,%edi
  402487:	e8 24 e8 ff ff       	callq  400cb0 <close@plt>
  40248c:	b8 ff ff ff ff       	mov    $0xffffffff,%eax
  402491:	e9 7b 03 00 00       	jmpq   402811 <submitr+0x856>
  402496:	4c 8d 44 24 20       	lea    0x20(%rsp),%r8
  40249b:	48 8d 8c 24 2c 20 00 	lea    0x202c(%rsp),%rcx
  4024a2:	00 
  4024a3:	48 8d 94 24 30 20 00 	lea    0x2030(%rsp),%rdx
  4024aa:	00 
  4024ab:	be 4f 34 40 00       	mov    $0x40344f,%esi
  4024b0:	48 8d bc 24 30 60 00 	lea    0x6030(%rsp),%rdi
  4024b7:	00 
  4024b8:	b8 00 00 00 00       	mov    $0x0,%eax
  4024bd:	e8 ae e8 ff ff       	callq  400d70 <__isoc99_sscanf@plt>
  4024c2:	e9 9a 00 00 00       	jmpq   402561 <submitr+0x5a6>
  4024c7:	ba 00 20 00 00       	mov    $0x2000,%edx
  4024cc:	48 8d b4 24 30 60 00 	lea    0x6030(%rsp),%rsi
  4024d3:	00 
  4024d4:	48 8d bc 24 30 80 00 	lea    0x8030(%rsp),%rdi
  4024db:	00 
  4024dc:	e8 c8 f9 ff ff       	callq  401ea9 <rio_readlineb>
  4024e1:	48 85 c0             	test   %rax,%rax
  4024e4:	7f 7b                	jg     402561 <submitr+0x5a6>
  4024e6:	48 b8 45 72 72 6f 72 	movabs $0x43203a726f727245,%rax
  4024ed:	3a 20 43 
  4024f0:	49 89 06             	mov    %rax,(%r14)
  4024f3:	48 b8 6c 69 65 6e 74 	movabs $0x6e7520746e65696c,%rax
  4024fa:	20 75 6e 
  4024fd:	49 89 46 08          	mov    %rax,0x8(%r14)
  402501:	48 b8 61 62 6c 65 20 	movabs $0x206f7420656c6261,%rax
  402508:	74 6f 20 
  40250b:	49 89 46 10          	mov    %rax,0x10(%r14)
  40250f:	48 b8 72 65 61 64 20 	movabs $0x6165682064616572,%rax
  402516:	68 65 61 
  402519:	49 89 46 18          	mov    %rax,0x18(%r14)
  40251d:	48 b8 64 65 72 73 20 	movabs $0x6f72662073726564,%rax
  402524:	66 72 6f 
  402527:	49 89 46 20          	mov    %rax,0x20(%r14)
  40252b:	48 b8 6d 20 74 68 65 	movabs $0x657220656874206d,%rax
  402532:	20 72 65 
  402535:	49 89 46 28          	mov    %rax,0x28(%r14)
  402539:	48 b8 73 75 6c 74 20 	movabs $0x72657320746c7573,%rax
  402540:	73 65 72 
  402543:	49 89 46 30          	mov    %rax,0x30(%r14)
  402547:	41 c7 46 38 76 65 72 	movl   $0x726576,0x38(%r14)
  40254e:	00 
  40254f:	44 89 e7             	mov    %r12d,%edi
  402552:	e8 59 e7 ff ff       	callq  400cb0 <close@plt>
  402557:	b8 ff ff ff ff       	mov    $0xffffffff,%eax
  40255c:	e9 b0 02 00 00       	jmpq   402811 <submitr+0x856>
  402561:	80 bc 24 30 60 00 00 	cmpb   $0xd,0x6030(%rsp)
  402568:	0d 
  402569:	0f 85 58 ff ff ff    	jne    4024c7 <submitr+0x50c>
  40256f:	80 bc 24 31 60 00 00 	cmpb   $0xa,0x6031(%rsp)
  402576:	0a 
  402577:	0f 85 4a ff ff ff    	jne    4024c7 <submitr+0x50c>
  40257d:	80 bc 24 32 60 00 00 	cmpb   $0x0,0x6032(%rsp)
  402584:	00 
  402585:	0f 85 3c ff ff ff    	jne    4024c7 <submitr+0x50c>
  40258b:	ba 00 20 00 00       	mov    $0x2000,%edx
  402590:	48 8d b4 24 30 60 00 	lea    0x6030(%rsp),%rsi
  402597:	00 
  402598:	48 8d bc 24 30 80 00 	lea    0x8030(%rsp),%rdi
  40259f:	00 
  4025a0:	e8 04 f9 ff ff       	callq  401ea9 <rio_readlineb>
  4025a5:	48 85 c0             	test   %rax,%rax
  4025a8:	0f 8f 87 00 00 00    	jg     402635 <submitr+0x67a>
  4025ae:	48 b8 45 72 72 6f 72 	movabs $0x43203a726f727245,%rax
  4025b5:	3a 20 43 
  4025b8:	49 89 06             	mov    %rax,(%r14)
  4025bb:	48 b8 6c 69 65 6e 74 	movabs $0x6e7520746e65696c,%rax
  4025c2:	20 75 6e 
  4025c5:	49 89 46 08          	mov    %rax,0x8(%r14)
  4025c9:	48 b8 61 62 6c 65 20 	movabs $0x206f7420656c6261,%rax
  4025d0:	74 6f 20 
  4025d3:	49 89 46 10          	mov    %rax,0x10(%r14)
  4025d7:	48 b8 72 65 61 64 20 	movabs $0x6174732064616572,%rax
  4025de:	73 74 61 
  4025e1:	49 89 46 18          	mov    %rax,0x18(%r14)
  4025e5:	48 b8 74 75 73 20 6d 	movabs $0x7373656d20737574,%rax
  4025ec:	65 73 73 
  4025ef:	49 89 46 20          	mov    %rax,0x20(%r14)
  4025f3:	48 b8 61 67 65 20 66 	movabs $0x6d6f726620656761,%rax
  4025fa:	72 6f 6d 
  4025fd:	49 89 46 28          	mov    %rax,0x28(%r14)
  402601:	48 b8 20 72 65 73 75 	movabs $0x20746c7573657220,%rax
  402608:	6c 74 20 
  40260b:	49 89 46 30          	mov    %rax,0x30(%r14)
  40260f:	41 c7 46 38 73 65 72 	movl   $0x76726573,0x38(%r14)
  402616:	76 
  402617:	66 41 c7 46 3c 65 72 	movw   $0x7265,0x3c(%r14)
  40261e:	41 c6 46 3e 00       	movb   $0x0,0x3e(%r14)
  402623:	44 89 e7             	mov    %r12d,%edi
  402626:	e8 85 e6 ff ff       	callq  400cb0 <close@plt>
  40262b:	b8 ff ff ff ff       	mov    $0xffffffff,%eax
  402630:	e9 dc 01 00 00       	jmpq   402811 <submitr+0x856>
  402635:	8b 94 24 2c 20 00 00 	mov    0x202c(%rsp),%edx
  40263c:	81 fa c8 00 00 00    	cmp    $0xc8,%edx
  402642:	74 29                	je     40266d <submitr+0x6b2>
  402644:	48 8d 4c 24 20       	lea    0x20(%rsp),%rcx
  402649:	be d8 33 40 00       	mov    $0x4033d8,%esi
  40264e:	4c 89 f7             	mov    %r14,%rdi
  402651:	b8 00 00 00 00       	mov    $0x0,%eax
  402656:	e8 85 e7 ff ff       	callq  400de0 <sprintf@plt>
  40265b:	44 89 e7             	mov    %r12d,%edi
  40265e:	e8 4d e6 ff ff       	callq  400cb0 <close@plt>
  402663:	b8 ff ff ff ff       	mov    $0xffffffff,%eax
  402668:	e9 a4 01 00 00       	jmpq   402811 <submitr+0x856>
  40266d:	48 8d b4 24 30 60 00 	lea    0x6030(%rsp),%rsi
  402674:	00 
  402675:	4c 89 f7             	mov    %r14,%rdi
  402678:	e8 c3 e5 ff ff       	callq  400c40 <strcpy@plt>
  40267d:	44 89 e7             	mov    %r12d,%edi
  402680:	e8 2b e6 ff ff       	callq  400cb0 <close@plt>
  402685:	41 0f b6 06          	movzbl (%r14),%eax
  402689:	83 e8 4f             	sub    $0x4f,%eax
  40268c:	89 c2                	mov    %eax,%edx
  40268e:	0f 85 35 01 00 00    	jne    4027c9 <submitr+0x80e>
  402694:	41 80 7e 01 4b       	cmpb   $0x4b,0x1(%r14)
  402699:	0f 85 50 01 00 00    	jne    4027ef <submitr+0x834>
  40269f:	41 80 7e 02 0a       	cmpb   $0xa,0x2(%r14)
  4026a4:	0f 85 45 01 00 00    	jne    4027ef <submitr+0x834>
  4026aa:	41 80 7e 03 00       	cmpb   $0x0,0x3(%r14)
  4026af:	74 23                	je     4026d4 <submitr+0x719>
  4026b1:	e9 39 01 00 00       	jmpq   4027ef <submitr+0x834>
  4026b6:	41 0f b6 56 01       	movzbl 0x1(%r14),%edx
  4026bb:	83 ea 4b             	sub    $0x4b,%edx
  4026be:	75 05                	jne    4026c5 <submitr+0x70a>
  4026c0:	41 0f b6 56 02       	movzbl 0x2(%r14),%edx
  4026c5:	85 d2                	test   %edx,%edx
  4026c7:	0f 95 c0             	setne  %al
  4026ca:	0f b6 c0             	movzbl %al,%eax
  4026cd:	f7 d8                	neg    %eax
  4026cf:	e9 3d 01 00 00       	jmpq   402811 <submitr+0x856>
  4026d4:	b8 00 00 00 00       	mov    $0x0,%eax
  4026d9:	e9 33 01 00 00       	jmpq   402811 <submitr+0x856>
  4026de:	4d 89 f9             	mov    %r15,%r9
  4026e1:	4c 8d 84 24 30 40 00 	lea    0x4030(%rsp),%r8
  4026e8:	00 
  4026e9:	48 8b 0c 24          	mov    (%rsp),%rcx
  4026ed:	48 8b 54 24 08       	mov    0x8(%rsp),%rdx
  4026f2:	be 08 34 40 00       	mov    $0x403408,%esi
  4026f7:	48 8d bc 24 30 60 00 	lea    0x6030(%rsp),%rdi
  4026fe:	00 
  4026ff:	b8 00 00 00 00       	mov    $0x0,%eax
  402704:	e8 d7 e6 ff ff       	callq  400de0 <sprintf@plt>
  402709:	48 8d bc 24 30 60 00 	lea    0x6030(%rsp),%rdi
  402710:	00 
  402711:	b8 00 00 00 00       	mov    $0x0,%eax
  402716:	48 c7 c1 ff ff ff ff 	mov    $0xffffffffffffffff,%rcx
  40271d:	f2 ae                	repnz scas %es:(%rdi),%al
  40271f:	48 f7 d1             	not    %rcx
  402722:	48 83 e9 01          	sub    $0x1,%rcx
  402726:	49 89 cd             	mov    %rcx,%r13
  402729:	0f 84 a1 fc ff ff    	je     4023d0 <submitr+0x415>
  40272f:	48 89 cb             	mov    %rcx,%rbx
  402732:	48 8d ac 24 30 60 00 	lea    0x6030(%rsp),%rbp
  402739:	00 
  40273a:	e9 f1 fb ff ff       	jmpq   402330 <submitr+0x375>
  40273f:	48 b8 45 72 72 6f 72 	movabs $0x52203a726f727245,%rax
  402746:	3a 20 52 
  402749:	49 89 06             	mov    %rax,(%r14)
  40274c:	48 b8 65 73 75 6c 74 	movabs $0x747320746c757365,%rax
  402753:	20 73 74 
  402756:	49 89 46 08          	mov    %rax,0x8(%r14)
  40275a:	48 b8 72 69 6e 67 20 	movabs $0x6e6f6320676e6972,%rax
  402761:	63 6f 6e 
  402764:	49 89 46 10          	mov    %rax,0x10(%r14)
  402768:	48 b8 74 61 69 6e 73 	movabs $0x6e6120736e696174,%rax
  40276f:	20 61 6e 
  402772:	49 89 46 18          	mov    %rax,0x18(%r14)
  402776:	48 b8 20 69 6c 6c 65 	movabs $0x6c6167656c6c6920,%rax
  40277d:	67 61 6c 
  402780:	49 89 46 20          	mov    %rax,0x20(%r14)
  402784:	48 b8 20 6f 72 20 75 	movabs $0x72706e7520726f20,%rax
  40278b:	6e 70 72 
  40278e:	49 89 46 28          	mov    %rax,0x28(%r14)
  402792:	48 b8 69 6e 74 61 62 	movabs $0x20656c6261746e69,%rax
  402799:	6c 65 20 
  40279c:	49 89 46 30          	mov    %rax,0x30(%r14)
  4027a0:	48 b8 63 68 61 72 61 	movabs $0x6574636172616863,%rax
  4027a7:	63 74 65 
  4027aa:	49 89 46 38          	mov    %rax,0x38(%r14)
  4027ae:	66 41 c7 46 40 72 2e 	movw   $0x2e72,0x40(%r14)
  4027b5:	41 c6 46 42 00       	movb   $0x0,0x42(%r14)
  4027ba:	44 89 e7             	mov    %r12d,%edi
  4027bd:	e8 ee e4 ff ff       	callq  400cb0 <close@plt>
  4027c2:	b8 ff ff ff ff       	mov    $0xffffffff,%eax
  4027c7:	eb 48                	jmp    402811 <submitr+0x856>
  4027c9:	bf 60 34 40 00       	mov    $0x403460,%edi
  4027ce:	b9 05 00 00 00       	mov    $0x5,%ecx
  4027d3:	4c 89 f6             	mov    %r14,%rsi
  4027d6:	f3 a6                	repz cmpsb %es:(%rdi),%ds:(%rsi)
  4027d8:	40 0f 97 c6          	seta   %sil
  4027dc:	0f 92 c1             	setb   %cl
  4027df:	b8 00 00 00 00       	mov    $0x0,%eax
  4027e4:	40 38 ce             	cmp    %cl,%sil
  4027e7:	0f 85 d8 fe ff ff    	jne    4026c5 <submitr+0x70a>
  4027ed:	eb 22                	jmp    402811 <submitr+0x856>
  4027ef:	bf 60 34 40 00       	mov    $0x403460,%edi
  4027f4:	b9 05 00 00 00       	mov    $0x5,%ecx
  4027f9:	4c 89 f6             	mov    %r14,%rsi
  4027fc:	f3 a6                	repz cmpsb %es:(%rdi),%ds:(%rsi)
  4027fe:	0f 97 c1             	seta   %cl
  402801:	0f 92 c2             	setb   %dl
  402804:	b8 00 00 00 00       	mov    $0x0,%eax
  402809:	38 d1                	cmp    %dl,%cl
  40280b:	0f 85 a5 fe ff ff    	jne    4026b6 <submitr+0x6fb>
  402811:	48 81 c4 58 a0 00 00 	add    $0xa058,%rsp
  402818:	5b                   	pop    %rbx
  402819:	5d                   	pop    %rbp
  40281a:	41 5c                	pop    %r12
  40281c:	41 5d                	pop    %r13
  40281e:	41 5e                	pop    %r14
  402820:	41 5f                	pop    %r15
  402822:	c3                   	retq   

0000000000402823 <init_timeout>:
  402823:	53                   	push   %rbx
  402824:	89 fb                	mov    %edi,%ebx
  402826:	85 ff                	test   %edi,%edi
  402828:	74 1e                	je     402848 <init_timeout+0x25>
  40282a:	be 80 1e 40 00       	mov    $0x401e80,%esi
  40282f:	bf 0e 00 00 00       	mov    $0xe,%edi
  402834:	e8 a7 e4 ff ff       	callq  400ce0 <signal@plt>
  402839:	85 db                	test   %ebx,%ebx
  40283b:	bf 00 00 00 00       	mov    $0x0,%edi
  402840:	0f 49 fb             	cmovns %ebx,%edi
  402843:	e8 58 e4 ff ff       	callq  400ca0 <alarm@plt>
  402848:	5b                   	pop    %rbx
  402849:	c3                   	retq   

000000000040284a <init_driver>:
  40284a:	55                   	push   %rbp
  40284b:	53                   	push   %rbx
  40284c:	48 83 ec 18          	sub    $0x18,%rsp
  402850:	48 89 fd             	mov    %rdi,%rbp
  402853:	be 01 00 00 00       	mov    $0x1,%esi
  402858:	bf 0d 00 00 00       	mov    $0xd,%edi
  40285d:	e8 7e e4 ff ff       	callq  400ce0 <signal@plt>
  402862:	be 01 00 00 00       	mov    $0x1,%esi
  402867:	bf 1d 00 00 00       	mov    $0x1d,%edi
  40286c:	e8 6f e4 ff ff       	callq  400ce0 <signal@plt>
  402871:	be 01 00 00 00       	mov    $0x1,%esi
  402876:	bf 1d 00 00 00       	mov    $0x1d,%edi
  40287b:	e8 60 e4 ff ff       	callq  400ce0 <signal@plt>
  402880:	ba 00 00 00 00       	mov    $0x0,%edx
  402885:	be 01 00 00 00       	mov    $0x1,%esi
  40288a:	bf 02 00 00 00       	mov    $0x2,%edi
  40288f:	e8 7c e5 ff ff       	callq  400e10 <socket@plt>
  402894:	89 c3                	mov    %eax,%ebx
  402896:	85 c0                	test   %eax,%eax
  402898:	79 4f                	jns    4028e9 <init_driver+0x9f>
  40289a:	48 b8 45 72 72 6f 72 	movabs $0x43203a726f727245,%rax
  4028a1:	3a 20 43 
  4028a4:	48 89 45 00          	mov    %rax,0x0(%rbp)
  4028a8:	48 b8 6c 69 65 6e 74 	movabs $0x6e7520746e65696c,%rax
  4028af:	20 75 6e 
  4028b2:	48 89 45 08          	mov    %rax,0x8(%rbp)
  4028b6:	48 b8 61 62 6c 65 20 	movabs $0x206f7420656c6261,%rax
  4028bd:	74 6f 20 
  4028c0:	48 89 45 10          	mov    %rax,0x10(%rbp)
  4028c4:	48 b8 63 72 65 61 74 	movabs $0x7320657461657263,%rax
  4028cb:	65 20 73 
  4028ce:	48 89 45 18          	mov    %rax,0x18(%rbp)
  4028d2:	c7 45 20 6f 63 6b 65 	movl   $0x656b636f,0x20(%rbp)
  4028d9:	66 c7 45 24 74 00    	movw   $0x74,0x24(%rbp)
  4028df:	b8 ff ff ff ff       	mov    $0xffffffff,%eax
  4028e4:	e9 23 01 00 00       	jmpq   402a0c <init_driver+0x1c2>
  4028e9:	bf ad 2f 40 00       	mov    $0x402fad,%edi
  4028ee:	e8 fd e3 ff ff       	callq  400cf0 <gethostbyname@plt>
  4028f3:	48 85 c0             	test   %rax,%rax
  4028f6:	75 68                	jne    402960 <init_driver+0x116>
  4028f8:	48 b8 45 72 72 6f 72 	movabs $0x44203a726f727245,%rax
  4028ff:	3a 20 44 
  402902:	48 89 45 00          	mov    %rax,0x0(%rbp)
  402906:	48 b8 4e 53 20 69 73 	movabs $0x6e7520736920534e,%rax
  40290d:	20 75 6e 
  402910:	48 89 45 08          	mov    %rax,0x8(%rbp)
  402914:	48 b8 61 62 6c 65 20 	movabs $0x206f7420656c6261,%rax
  40291b:	74 6f 20 
  40291e:	48 89 45 10          	mov    %rax,0x10(%rbp)
  402922:	48 b8 72 65 73 6f 6c 	movabs $0x2065766c6f736572,%rax
  402929:	76 65 20 
  40292c:	48 89 45 18          	mov    %rax,0x18(%rbp)
  402930:	48 b8 73 65 72 76 65 	movabs $0x6120726576726573,%rax
  402937:	72 20 61 
  40293a:	48 89 45 20          	mov    %rax,0x20(%rbp)
  40293e:	c7 45 28 64 64 72 65 	movl   $0x65726464,0x28(%rbp)
  402945:	66 c7 45 2c 73 73    	movw   $0x7373,0x2c(%rbp)
  40294b:	c6 45 2e 00          	movb   $0x0,0x2e(%rbp)
  40294f:	89 df                	mov    %ebx,%edi
  402951:	e8 5a e3 ff ff       	callq  400cb0 <close@plt>
  402956:	b8 ff ff ff ff       	mov    $0xffffffff,%eax
  40295b:	e9 ac 00 00 00       	jmpq   402a0c <init_driver+0x1c2>
  402960:	48 c7 04 24 00 00 00 	movq   $0x0,(%rsp)
  402967:	00 
  402968:	48 c7 44 24 08 00 00 	movq   $0x0,0x8(%rsp)
  40296f:	00 00 
  402971:	66 c7 04 24 02 00    	movw   $0x2,(%rsp)
  402977:	48 63 50 14          	movslq 0x14(%rax),%rdx
  40297b:	48 8d 74 24 04       	lea    0x4(%rsp),%rsi
  402980:	48 8b 40 18          	mov    0x18(%rax),%rax
  402984:	48 8b 38             	mov    (%rax),%rdi
  402987:	e8 04 e4 ff ff       	callq  400d90 <bcopy@plt>
  40298c:	66 c7 44 24 02 3c 9a 	movw   $0x9a3c,0x2(%rsp)
  402993:	ba 10 00 00 00       	mov    $0x10,%edx
  402998:	48 89 e6             	mov    %rsp,%rsi
  40299b:	89 df                	mov    %ebx,%edi
  40299d:	e8 5e e4 ff ff       	callq  400e00 <connect@plt>
  4029a2:	85 c0                	test   %eax,%eax
  4029a4:	79 50                	jns    4029f6 <init_driver+0x1ac>
  4029a6:	48 b8 45 72 72 6f 72 	movabs $0x55203a726f727245,%rax
  4029ad:	3a 20 55 
  4029b0:	48 89 45 00          	mov    %rax,0x0(%rbp)
  4029b4:	48 b8 6e 61 62 6c 65 	movabs $0x6f7420656c62616e,%rax
  4029bb:	20 74 6f 
  4029be:	48 89 45 08          	mov    %rax,0x8(%rbp)
  4029c2:	48 b8 20 63 6f 6e 6e 	movabs $0x7463656e6e6f6320,%rax
  4029c9:	65 63 74 
  4029cc:	48 89 45 10          	mov    %rax,0x10(%rbp)
  4029d0:	48 b8 20 74 6f 20 73 	movabs $0x76726573206f7420,%rax
  4029d7:	65 72 76 
  4029da:	48 89 45 18          	mov    %rax,0x18(%rbp)
  4029de:	66 c7 45 20 65 72    	movw   $0x7265,0x20(%rbp)
  4029e4:	c6 45 22 00          	movb   $0x0,0x22(%rbp)
  4029e8:	89 df                	mov    %ebx,%edi
  4029ea:	e8 c1 e2 ff ff       	callq  400cb0 <close@plt>
  4029ef:	b8 ff ff ff ff       	mov    $0xffffffff,%eax
  4029f4:	eb 16                	jmp    402a0c <init_driver+0x1c2>
  4029f6:	89 df                	mov    %ebx,%edi
  4029f8:	e8 b3 e2 ff ff       	callq  400cb0 <close@plt>
  4029fd:	66 c7 45 00 4f 4b    	movw   $0x4b4f,0x0(%rbp)
  402a03:	c6 45 02 00          	movb   $0x0,0x2(%rbp)
  402a07:	b8 00 00 00 00       	mov    $0x0,%eax
  402a0c:	48 83 c4 18          	add    $0x18,%rsp
  402a10:	5b                   	pop    %rbx
  402a11:	5d                   	pop    %rbp
  402a12:	c3                   	retq   

0000000000402a13 <driver_post>:
  402a13:	53                   	push   %rbx
  402a14:	48 83 ec 10          	sub    $0x10,%rsp
  402a18:	4c 89 cb             	mov    %r9,%rbx
  402a1b:	45 85 c0             	test   %r8d,%r8d
  402a1e:	74 22                	je     402a42 <driver_post+0x2f>
  402a20:	48 89 ce             	mov    %rcx,%rsi
  402a23:	bf 65 34 40 00       	mov    $0x403465,%edi
  402a28:	b8 00 00 00 00       	mov    $0x0,%eax
  402a2d:	e8 4e e2 ff ff       	callq  400c80 <printf@plt>
  402a32:	66 c7 03 4f 4b       	movw   $0x4b4f,(%rbx)
  402a37:	c6 43 02 00          	movb   $0x0,0x2(%rbx)
  402a3b:	b8 00 00 00 00       	mov    $0x0,%eax
  402a40:	eb 39                	jmp    402a7b <driver_post+0x68>
  402a42:	48 85 ff             	test   %rdi,%rdi
  402a45:	74 26                	je     402a6d <driver_post+0x5a>
  402a47:	80 3f 00             	cmpb   $0x0,(%rdi)
  402a4a:	74 21                	je     402a6d <driver_post+0x5a>
  402a4c:	4c 89 0c 24          	mov    %r9,(%rsp)
  402a50:	49 89 c9             	mov    %rcx,%r9
  402a53:	49 89 d0             	mov    %rdx,%r8
  402a56:	48 89 f9             	mov    %rdi,%rcx
  402a59:	48 89 f2             	mov    %rsi,%rdx
  402a5c:	be 9a 3c 00 00       	mov    $0x3c9a,%esi
  402a61:	bf ad 2f 40 00       	mov    $0x402fad,%edi
  402a66:	e8 50 f5 ff ff       	callq  401fbb <submitr>
  402a6b:	eb 0e                	jmp    402a7b <driver_post+0x68>
  402a6d:	66 c7 03 4f 4b       	movw   $0x4b4f,(%rbx)
  402a72:	c6 43 02 00          	movb   $0x0,0x2(%rbx)
  402a76:	b8 00 00 00 00       	mov    $0x0,%eax
  402a7b:	48 83 c4 10          	add    $0x10,%rsp
  402a7f:	5b                   	pop    %rbx
  402a80:	c3                   	retq   
  402a81:	66 2e 0f 1f 84 00 00 	nopw   %cs:0x0(%rax,%rax,1)
  402a88:	00 00 00 
  402a8b:	0f 1f 44 00 00       	nopl   0x0(%rax,%rax,1)

0000000000402a90 <check>:
  402a90:	89 fa                	mov    %edi,%edx
  402a92:	c1 ea 1c             	shr    $0x1c,%edx
  402a95:	b8 00 00 00 00       	mov    $0x0,%eax
  402a9a:	85 d2                	test   %edx,%edx
  402a9c:	74 2e                	je     402acc <check+0x3c>
  402a9e:	40 80 ff 0a          	cmp    $0xa,%dil
  402aa2:	74 17                	je     402abb <check+0x2b>
  402aa4:	b9 08 00 00 00       	mov    $0x8,%ecx
  402aa9:	89 f8                	mov    %edi,%eax
  402aab:	d3 e8                	shr    %cl,%eax
  402aad:	3c 0a                	cmp    $0xa,%al
  402aaf:	74 10                	je     402ac1 <check+0x31>
  402ab1:	83 c1 08             	add    $0x8,%ecx
  402ab4:	83 f9 20             	cmp    $0x20,%ecx
  402ab7:	75 f0                	jne    402aa9 <check+0x19>
  402ab9:	eb 0c                	jmp    402ac7 <check+0x37>
  402abb:	b8 00 00 00 00       	mov    $0x0,%eax
  402ac0:	c3                   	retq   
  402ac1:	b8 00 00 00 00       	mov    $0x0,%eax
  402ac6:	c3                   	retq   
  402ac7:	b8 01 00 00 00       	mov    $0x1,%eax
  402acc:	f3 c3                	repz retq 

0000000000402ace <gencookie>:
  402ace:	53                   	push   %rbx
  402acf:	83 c7 01             	add    $0x1,%edi
  402ad2:	e8 49 e1 ff ff       	callq  400c20 <srandom@plt>
  402ad7:	e8 74 e2 ff ff       	callq  400d50 <random@plt>
  402adc:	89 c3                	mov    %eax,%ebx
  402ade:	89 c7                	mov    %eax,%edi
  402ae0:	e8 ab ff ff ff       	callq  402a90 <check>
  402ae5:	85 c0                	test   %eax,%eax
  402ae7:	74 ee                	je     402ad7 <gencookie+0x9>
  402ae9:	89 d8                	mov    %ebx,%eax
  402aeb:	5b                   	pop    %rbx
  402aec:	c3                   	retq   
  402aed:	0f 1f 00             	nopl   (%rax)

0000000000402af0 <__libc_csu_init>:
  402af0:	41 57                	push   %r15
  402af2:	41 89 ff             	mov    %edi,%r15d
  402af5:	41 56                	push   %r14
  402af7:	49 89 f6             	mov    %rsi,%r14
  402afa:	41 55                	push   %r13
  402afc:	49 89 d5             	mov    %rdx,%r13
  402aff:	41 54                	push   %r12
  402b01:	4c 8d 25 08 13 20 00 	lea    0x201308(%rip),%r12        # 603e10 <__frame_dummy_init_array_entry>
  402b08:	55                   	push   %rbp
  402b09:	48 8d 2d 08 13 20 00 	lea    0x201308(%rip),%rbp        # 603e18 <__init_array_end>
  402b10:	53                   	push   %rbx
  402b11:	4c 29 e5             	sub    %r12,%rbp
  402b14:	31 db                	xor    %ebx,%ebx
  402b16:	48 c1 fd 03          	sar    $0x3,%rbp
  402b1a:	48 83 ec 08          	sub    $0x8,%rsp
  402b1e:	e8 a5 e0 ff ff       	callq  400bc8 <_init>
  402b23:	48 85 ed             	test   %rbp,%rbp
  402b26:	74 1e                	je     402b46 <__libc_csu_init+0x56>
  402b28:	0f 1f 84 00 00 00 00 	nopl   0x0(%rax,%rax,1)
  402b2f:	00 
  402b30:	4c 89 ea             	mov    %r13,%rdx
  402b33:	4c 89 f6             	mov    %r14,%rsi
  402b36:	44 89 ff             	mov    %r15d,%edi
  402b39:	41 ff 14 dc          	callq  *(%r12,%rbx,8)
  402b3d:	48 83 c3 01          	add    $0x1,%rbx
  402b41:	48 39 eb             	cmp    %rbp,%rbx
  402b44:	75 ea                	jne    402b30 <__libc_csu_init+0x40>
  402b46:	48 83 c4 08          	add    $0x8,%rsp
  402b4a:	5b                   	pop    %rbx
  402b4b:	5d                   	pop    %rbp
  402b4c:	41 5c                	pop    %r12
  402b4e:	41 5d                	pop    %r13
  402b50:	41 5e                	pop    %r14
  402b52:	41 5f                	pop    %r15
  402b54:	c3                   	retq   
  402b55:	90                   	nop
  402b56:	66 2e 0f 1f 84 00 00 	nopw   %cs:0x0(%rax,%rax,1)
  402b5d:	00 00 00 

0000000000402b60 <__libc_csu_fini>:
  402b60:	f3 c3                	repz retq 

Disassembly of section .fini:

0000000000402b64 <_fini>:
  402b64:	48 83 ec 08          	sub    $0x8,%rsp
  402b68:	48 83 c4 08          	add    $0x8,%rsp
  402b6c:	c3                   	retq   
