
rtarget:     file format elf64-x86-64


Disassembly of section .init:

0000000000400bc8 <_init>:
  400bc8:	48 83 ec 08          	sub    $0x8,%rsp
  400bcc:	48 8b 05 25 44 20 00 	mov    0x204425(%rip),%rax        # 604ff8 <_DYNAMIC+0x1d0>
  400bd3:	48 85 c0             	test   %rax,%rax
  400bd6:	74 05                	je     400bdd <_init+0x15>
  400bd8:	e8 33 01 00 00       	callq  400d10 <__gmon_start__@plt>
  400bdd:	48 83 c4 08          	add    $0x8,%rsp
  400be1:	c3                   	retq   

Disassembly of section .plt:

0000000000400bf0 <strcasecmp@plt-0x10>:
  400bf0:	ff 35 12 44 20 00    	pushq  0x204412(%rip)        # 605008 <_GLOBAL_OFFSET_TABLE_+0x8>
  400bf6:	ff 25 14 44 20 00    	jmpq   *0x204414(%rip)        # 605010 <_GLOBAL_OFFSET_TABLE_+0x10>
  400bfc:	0f 1f 40 00          	nopl   0x0(%rax)

0000000000400c00 <strcasecmp@plt>:
  400c00:	ff 25 12 44 20 00    	jmpq   *0x204412(%rip)        # 605018 <_GLOBAL_OFFSET_TABLE_+0x18>
  400c06:	68 00 00 00 00       	pushq  $0x0
  400c0b:	e9 e0 ff ff ff       	jmpq   400bf0 <_init+0x28>

0000000000400c10 <__errno_location@plt>:
  400c10:	ff 25 0a 44 20 00    	jmpq   *0x20440a(%rip)        # 605020 <_GLOBAL_OFFSET_TABLE_+0x20>
  400c16:	68 01 00 00 00       	pushq  $0x1
  400c1b:	e9 d0 ff ff ff       	jmpq   400bf0 <_init+0x28>

0000000000400c20 <srandom@plt>:
  400c20:	ff 25 02 44 20 00    	jmpq   *0x204402(%rip)        # 605028 <_GLOBAL_OFFSET_TABLE_+0x28>
  400c26:	68 02 00 00 00       	pushq  $0x2
  400c2b:	e9 c0 ff ff ff       	jmpq   400bf0 <_init+0x28>

0000000000400c30 <strncmp@plt>:
  400c30:	ff 25 fa 43 20 00    	jmpq   *0x2043fa(%rip)        # 605030 <_GLOBAL_OFFSET_TABLE_+0x30>
  400c36:	68 03 00 00 00       	pushq  $0x3
  400c3b:	e9 b0 ff ff ff       	jmpq   400bf0 <_init+0x28>

0000000000400c40 <strcpy@plt>:
  400c40:	ff 25 f2 43 20 00    	jmpq   *0x2043f2(%rip)        # 605038 <_GLOBAL_OFFSET_TABLE_+0x38>
  400c46:	68 04 00 00 00       	pushq  $0x4
  400c4b:	e9 a0 ff ff ff       	jmpq   400bf0 <_init+0x28>

0000000000400c50 <puts@plt>:
  400c50:	ff 25 ea 43 20 00    	jmpq   *0x2043ea(%rip)        # 605040 <_GLOBAL_OFFSET_TABLE_+0x40>
  400c56:	68 05 00 00 00       	pushq  $0x5
  400c5b:	e9 90 ff ff ff       	jmpq   400bf0 <_init+0x28>

0000000000400c60 <write@plt>:
  400c60:	ff 25 e2 43 20 00    	jmpq   *0x2043e2(%rip)        # 605048 <_GLOBAL_OFFSET_TABLE_+0x48>
  400c66:	68 06 00 00 00       	pushq  $0x6
  400c6b:	e9 80 ff ff ff       	jmpq   400bf0 <_init+0x28>

0000000000400c70 <mmap@plt>:
  400c70:	ff 25 da 43 20 00    	jmpq   *0x2043da(%rip)        # 605050 <_GLOBAL_OFFSET_TABLE_+0x50>
  400c76:	68 07 00 00 00       	pushq  $0x7
  400c7b:	e9 70 ff ff ff       	jmpq   400bf0 <_init+0x28>

0000000000400c80 <printf@plt>:
  400c80:	ff 25 d2 43 20 00    	jmpq   *0x2043d2(%rip)        # 605058 <_GLOBAL_OFFSET_TABLE_+0x58>
  400c86:	68 08 00 00 00       	pushq  $0x8
  400c8b:	e9 60 ff ff ff       	jmpq   400bf0 <_init+0x28>

0000000000400c90 <memset@plt>:
  400c90:	ff 25 ca 43 20 00    	jmpq   *0x2043ca(%rip)        # 605060 <_GLOBAL_OFFSET_TABLE_+0x60>
  400c96:	68 09 00 00 00       	pushq  $0x9
  400c9b:	e9 50 ff ff ff       	jmpq   400bf0 <_init+0x28>

0000000000400ca0 <alarm@plt>:
  400ca0:	ff 25 c2 43 20 00    	jmpq   *0x2043c2(%rip)        # 605068 <_GLOBAL_OFFSET_TABLE_+0x68>
  400ca6:	68 0a 00 00 00       	pushq  $0xa
  400cab:	e9 40 ff ff ff       	jmpq   400bf0 <_init+0x28>

0000000000400cb0 <close@plt>:
  400cb0:	ff 25 ba 43 20 00    	jmpq   *0x2043ba(%rip)        # 605070 <_GLOBAL_OFFSET_TABLE_+0x70>
  400cb6:	68 0b 00 00 00       	pushq  $0xb
  400cbb:	e9 30 ff ff ff       	jmpq   400bf0 <_init+0x28>

0000000000400cc0 <read@plt>:
  400cc0:	ff 25 b2 43 20 00    	jmpq   *0x2043b2(%rip)        # 605078 <_GLOBAL_OFFSET_TABLE_+0x78>
  400cc6:	68 0c 00 00 00       	pushq  $0xc
  400ccb:	e9 20 ff ff ff       	jmpq   400bf0 <_init+0x28>

0000000000400cd0 <__libc_start_main@plt>:
  400cd0:	ff 25 aa 43 20 00    	jmpq   *0x2043aa(%rip)        # 605080 <_GLOBAL_OFFSET_TABLE_+0x80>
  400cd6:	68 0d 00 00 00       	pushq  $0xd
  400cdb:	e9 10 ff ff ff       	jmpq   400bf0 <_init+0x28>

0000000000400ce0 <signal@plt>:
  400ce0:	ff 25 a2 43 20 00    	jmpq   *0x2043a2(%rip)        # 605088 <_GLOBAL_OFFSET_TABLE_+0x88>
  400ce6:	68 0e 00 00 00       	pushq  $0xe
  400ceb:	e9 00 ff ff ff       	jmpq   400bf0 <_init+0x28>

0000000000400cf0 <gethostbyname@plt>:
  400cf0:	ff 25 9a 43 20 00    	jmpq   *0x20439a(%rip)        # 605090 <_GLOBAL_OFFSET_TABLE_+0x90>
  400cf6:	68 0f 00 00 00       	pushq  $0xf
  400cfb:	e9 f0 fe ff ff       	jmpq   400bf0 <_init+0x28>

0000000000400d00 <fprintf@plt>:
  400d00:	ff 25 92 43 20 00    	jmpq   *0x204392(%rip)        # 605098 <_GLOBAL_OFFSET_TABLE_+0x98>
  400d06:	68 10 00 00 00       	pushq  $0x10
  400d0b:	e9 e0 fe ff ff       	jmpq   400bf0 <_init+0x28>

0000000000400d10 <__gmon_start__@plt>:
  400d10:	ff 25 8a 43 20 00    	jmpq   *0x20438a(%rip)        # 6050a0 <_GLOBAL_OFFSET_TABLE_+0xa0>
  400d16:	68 11 00 00 00       	pushq  $0x11
  400d1b:	e9 d0 fe ff ff       	jmpq   400bf0 <_init+0x28>

0000000000400d20 <strtol@plt>:
  400d20:	ff 25 82 43 20 00    	jmpq   *0x204382(%rip)        # 6050a8 <_GLOBAL_OFFSET_TABLE_+0xa8>
  400d26:	68 12 00 00 00       	pushq  $0x12
  400d2b:	e9 c0 fe ff ff       	jmpq   400bf0 <_init+0x28>

0000000000400d30 <memcpy@plt>:
  400d30:	ff 25 7a 43 20 00    	jmpq   *0x20437a(%rip)        # 6050b0 <_GLOBAL_OFFSET_TABLE_+0xb0>
  400d36:	68 13 00 00 00       	pushq  $0x13
  400d3b:	e9 b0 fe ff ff       	jmpq   400bf0 <_init+0x28>

0000000000400d40 <time@plt>:
  400d40:	ff 25 72 43 20 00    	jmpq   *0x204372(%rip)        # 6050b8 <_GLOBAL_OFFSET_TABLE_+0xb8>
  400d46:	68 14 00 00 00       	pushq  $0x14
  400d4b:	e9 a0 fe ff ff       	jmpq   400bf0 <_init+0x28>

0000000000400d50 <random@plt>:
  400d50:	ff 25 6a 43 20 00    	jmpq   *0x20436a(%rip)        # 6050c0 <_GLOBAL_OFFSET_TABLE_+0xc0>
  400d56:	68 15 00 00 00       	pushq  $0x15
  400d5b:	e9 90 fe ff ff       	jmpq   400bf0 <_init+0x28>

0000000000400d60 <_IO_getc@plt>:
  400d60:	ff 25 62 43 20 00    	jmpq   *0x204362(%rip)        # 6050c8 <_GLOBAL_OFFSET_TABLE_+0xc8>
  400d66:	68 16 00 00 00       	pushq  $0x16
  400d6b:	e9 80 fe ff ff       	jmpq   400bf0 <_init+0x28>

0000000000400d70 <__isoc99_sscanf@plt>:
  400d70:	ff 25 5a 43 20 00    	jmpq   *0x20435a(%rip)        # 6050d0 <_GLOBAL_OFFSET_TABLE_+0xd0>
  400d76:	68 17 00 00 00       	pushq  $0x17
  400d7b:	e9 70 fe ff ff       	jmpq   400bf0 <_init+0x28>

0000000000400d80 <munmap@plt>:
  400d80:	ff 25 52 43 20 00    	jmpq   *0x204352(%rip)        # 6050d8 <_GLOBAL_OFFSET_TABLE_+0xd8>
  400d86:	68 18 00 00 00       	pushq  $0x18
  400d8b:	e9 60 fe ff ff       	jmpq   400bf0 <_init+0x28>

0000000000400d90 <bcopy@plt>:
  400d90:	ff 25 4a 43 20 00    	jmpq   *0x20434a(%rip)        # 6050e0 <_GLOBAL_OFFSET_TABLE_+0xe0>
  400d96:	68 19 00 00 00       	pushq  $0x19
  400d9b:	e9 50 fe ff ff       	jmpq   400bf0 <_init+0x28>

0000000000400da0 <fopen@plt>:
  400da0:	ff 25 42 43 20 00    	jmpq   *0x204342(%rip)        # 6050e8 <_GLOBAL_OFFSET_TABLE_+0xe8>
  400da6:	68 1a 00 00 00       	pushq  $0x1a
  400dab:	e9 40 fe ff ff       	jmpq   400bf0 <_init+0x28>

0000000000400db0 <getopt@plt>:
  400db0:	ff 25 3a 43 20 00    	jmpq   *0x20433a(%rip)        # 6050f0 <_GLOBAL_OFFSET_TABLE_+0xf0>
  400db6:	68 1b 00 00 00       	pushq  $0x1b
  400dbb:	e9 30 fe ff ff       	jmpq   400bf0 <_init+0x28>

0000000000400dc0 <strtoul@plt>:
  400dc0:	ff 25 32 43 20 00    	jmpq   *0x204332(%rip)        # 6050f8 <_GLOBAL_OFFSET_TABLE_+0xf8>
  400dc6:	68 1c 00 00 00       	pushq  $0x1c
  400dcb:	e9 20 fe ff ff       	jmpq   400bf0 <_init+0x28>

0000000000400dd0 <gethostname@plt>:
  400dd0:	ff 25 2a 43 20 00    	jmpq   *0x20432a(%rip)        # 605100 <_GLOBAL_OFFSET_TABLE_+0x100>
  400dd6:	68 1d 00 00 00       	pushq  $0x1d
  400ddb:	e9 10 fe ff ff       	jmpq   400bf0 <_init+0x28>

0000000000400de0 <sprintf@plt>:
  400de0:	ff 25 22 43 20 00    	jmpq   *0x204322(%rip)        # 605108 <_GLOBAL_OFFSET_TABLE_+0x108>
  400de6:	68 1e 00 00 00       	pushq  $0x1e
  400deb:	e9 00 fe ff ff       	jmpq   400bf0 <_init+0x28>

0000000000400df0 <exit@plt>:
  400df0:	ff 25 1a 43 20 00    	jmpq   *0x20431a(%rip)        # 605110 <_GLOBAL_OFFSET_TABLE_+0x110>
  400df6:	68 1f 00 00 00       	pushq  $0x1f
  400dfb:	e9 f0 fd ff ff       	jmpq   400bf0 <_init+0x28>

0000000000400e00 <connect@plt>:
  400e00:	ff 25 12 43 20 00    	jmpq   *0x204312(%rip)        # 605118 <_GLOBAL_OFFSET_TABLE_+0x118>
  400e06:	68 20 00 00 00       	pushq  $0x20
  400e0b:	e9 e0 fd ff ff       	jmpq   400bf0 <_init+0x28>

0000000000400e10 <socket@plt>:
  400e10:	ff 25 0a 43 20 00    	jmpq   *0x20430a(%rip)        # 605120 <_GLOBAL_OFFSET_TABLE_+0x120>
  400e16:	68 21 00 00 00       	pushq  $0x21
  400e1b:	e9 d0 fd ff ff       	jmpq   400bf0 <_init+0x28>

Disassembly of section .text:

0000000000400e20 <_start>:
  400e20:	31 ed                	xor    %ebp,%ebp
  400e22:	49 89 d1             	mov    %rdx,%r9
  400e25:	5e                   	pop    %rsi
  400e26:	48 89 e2             	mov    %rsp,%rdx
  400e29:	48 83 e4 f0          	and    $0xfffffffffffffff0,%rsp
  400e2d:	50                   	push   %rax
  400e2e:	54                   	push   %rsp
  400e2f:	49 c7 c0 80 2c 40 00 	mov    $0x402c80,%r8
  400e36:	48 c7 c1 10 2c 40 00 	mov    $0x402c10,%rcx
  400e3d:	48 c7 c7 da 10 40 00 	mov    $0x4010da,%rdi
  400e44:	e8 87 fe ff ff       	callq  400cd0 <__libc_start_main@plt>
  400e49:	f4                   	hlt    
  400e4a:	66 0f 1f 44 00 00    	nopw   0x0(%rax,%rax,1)

0000000000400e50 <deregister_tm_clones>:
  400e50:	b8 b7 54 60 00       	mov    $0x6054b7,%eax
  400e55:	55                   	push   %rbp
  400e56:	48 2d b0 54 60 00    	sub    $0x6054b0,%rax
  400e5c:	48 83 f8 0e          	cmp    $0xe,%rax
  400e60:	48 89 e5             	mov    %rsp,%rbp
  400e63:	77 02                	ja     400e67 <deregister_tm_clones+0x17>
  400e65:	5d                   	pop    %rbp
  400e66:	c3                   	retq   
  400e67:	b8 00 00 00 00       	mov    $0x0,%eax
  400e6c:	48 85 c0             	test   %rax,%rax
  400e6f:	74 f4                	je     400e65 <deregister_tm_clones+0x15>
  400e71:	5d                   	pop    %rbp
  400e72:	bf b0 54 60 00       	mov    $0x6054b0,%edi
  400e77:	ff e0                	jmpq   *%rax
  400e79:	0f 1f 80 00 00 00 00 	nopl   0x0(%rax)

0000000000400e80 <register_tm_clones>:
  400e80:	b8 b0 54 60 00       	mov    $0x6054b0,%eax
  400e85:	55                   	push   %rbp
  400e86:	48 2d b0 54 60 00    	sub    $0x6054b0,%rax
  400e8c:	48 c1 f8 03          	sar    $0x3,%rax
  400e90:	48 89 e5             	mov    %rsp,%rbp
  400e93:	48 89 c2             	mov    %rax,%rdx
  400e96:	48 c1 ea 3f          	shr    $0x3f,%rdx
  400e9a:	48 01 d0             	add    %rdx,%rax
  400e9d:	48 d1 f8             	sar    %rax
  400ea0:	75 02                	jne    400ea4 <register_tm_clones+0x24>
  400ea2:	5d                   	pop    %rbp
  400ea3:	c3                   	retq   
  400ea4:	ba 00 00 00 00       	mov    $0x0,%edx
  400ea9:	48 85 d2             	test   %rdx,%rdx
  400eac:	74 f4                	je     400ea2 <register_tm_clones+0x22>
  400eae:	5d                   	pop    %rbp
  400eaf:	48 89 c6             	mov    %rax,%rsi
  400eb2:	bf b0 54 60 00       	mov    $0x6054b0,%edi
  400eb7:	ff e2                	jmpq   *%rdx
  400eb9:	0f 1f 80 00 00 00 00 	nopl   0x0(%rax)

0000000000400ec0 <__do_global_dtors_aux>:
  400ec0:	80 3d 11 46 20 00 00 	cmpb   $0x0,0x204611(%rip)        # 6054d8 <completed.6344>
  400ec7:	75 11                	jne    400eda <__do_global_dtors_aux+0x1a>
  400ec9:	55                   	push   %rbp
  400eca:	48 89 e5             	mov    %rsp,%rbp
  400ecd:	e8 7e ff ff ff       	callq  400e50 <deregister_tm_clones>
  400ed2:	5d                   	pop    %rbp
  400ed3:	c6 05 fe 45 20 00 01 	movb   $0x1,0x2045fe(%rip)        # 6054d8 <completed.6344>
  400eda:	f3 c3                	repz retq 
  400edc:	0f 1f 40 00          	nopl   0x0(%rax)

0000000000400ee0 <frame_dummy>:
  400ee0:	48 83 3d 38 3f 20 00 	cmpq   $0x0,0x203f38(%rip)        # 604e20 <__JCR_END__>
  400ee7:	00 
  400ee8:	74 1e                	je     400f08 <frame_dummy+0x28>
  400eea:	b8 00 00 00 00       	mov    $0x0,%eax
  400eef:	48 85 c0             	test   %rax,%rax
  400ef2:	74 14                	je     400f08 <frame_dummy+0x28>
  400ef4:	55                   	push   %rbp
  400ef5:	bf 20 4e 60 00       	mov    $0x604e20,%edi
  400efa:	48 89 e5             	mov    %rsp,%rbp
  400efd:	ff d0                	callq  *%rax
  400eff:	5d                   	pop    %rbp
  400f00:	e9 7b ff ff ff       	jmpq   400e80 <register_tm_clones>
  400f05:	0f 1f 00             	nopl   (%rax)
  400f08:	e9 73 ff ff ff       	jmpq   400e80 <register_tm_clones>

0000000000400f0d <usage>:
  400f0d:	48 83 ec 08          	sub    $0x8,%rsp
  400f11:	48 89 fe             	mov    %rdi,%rsi
  400f14:	83 3d ed 45 20 00 00 	cmpl   $0x0,0x2045ed(%rip)        # 605508 <is_checker>
  400f1b:	74 39                	je     400f56 <usage+0x49>
  400f1d:	bf a0 2c 40 00       	mov    $0x402ca0,%edi
  400f22:	b8 00 00 00 00       	mov    $0x0,%eax
  400f27:	e8 54 fd ff ff       	callq  400c80 <printf@plt>
  400f2c:	bf d8 2c 40 00       	mov    $0x402cd8,%edi
  400f31:	e8 1a fd ff ff       	callq  400c50 <puts@plt>
  400f36:	bf 50 2e 40 00       	mov    $0x402e50,%edi
  400f3b:	e8 10 fd ff ff       	callq  400c50 <puts@plt>
  400f40:	bf 00 2d 40 00       	mov    $0x402d00,%edi
  400f45:	e8 06 fd ff ff       	callq  400c50 <puts@plt>
  400f4a:	bf 6a 2e 40 00       	mov    $0x402e6a,%edi
  400f4f:	e8 fc fc ff ff       	callq  400c50 <puts@plt>
  400f54:	eb 2d                	jmp    400f83 <usage+0x76>
  400f56:	bf 86 2e 40 00       	mov    $0x402e86,%edi
  400f5b:	b8 00 00 00 00       	mov    $0x0,%eax
  400f60:	e8 1b fd ff ff       	callq  400c80 <printf@plt>
  400f65:	bf 28 2d 40 00       	mov    $0x402d28,%edi
  400f6a:	e8 e1 fc ff ff       	callq  400c50 <puts@plt>
  400f6f:	bf 50 2d 40 00       	mov    $0x402d50,%edi
  400f74:	e8 d7 fc ff ff       	callq  400c50 <puts@plt>
  400f79:	bf a4 2e 40 00       	mov    $0x402ea4,%edi
  400f7e:	e8 cd fc ff ff       	callq  400c50 <puts@plt>
  400f83:	bf 00 00 00 00       	mov    $0x0,%edi
  400f88:	e8 63 fe ff ff       	callq  400df0 <exit@plt>

0000000000400f8d <initialize_target>:
  400f8d:	55                   	push   %rbp
  400f8e:	53                   	push   %rbx
  400f8f:	48 81 ec 08 21 00 00 	sub    $0x2108,%rsp
  400f96:	89 f5                	mov    %esi,%ebp
  400f98:	89 3d 5a 45 20 00    	mov    %edi,0x20455a(%rip)        # 6054f8 <check_level>
  400f9e:	8b 3d c4 41 20 00    	mov    0x2041c4(%rip),%edi        # 605168 <target_id>
  400fa4:	e8 45 1c 00 00       	callq  402bee <gencookie>
  400fa9:	89 05 55 45 20 00    	mov    %eax,0x204555(%rip)        # 605504 <cookie>
  400faf:	89 c7                	mov    %eax,%edi
  400fb1:	e8 38 1c 00 00       	callq  402bee <gencookie>
  400fb6:	89 05 44 45 20 00    	mov    %eax,0x204544(%rip)        # 605500 <authkey>
  400fbc:	8b 05 a6 41 20 00    	mov    0x2041a6(%rip),%eax        # 605168 <target_id>
  400fc2:	8d 78 01             	lea    0x1(%rax),%edi
  400fc5:	e8 56 fc ff ff       	callq  400c20 <srandom@plt>
  400fca:	e8 81 fd ff ff       	callq  400d50 <random@plt>
  400fcf:	89 c7                	mov    %eax,%edi
  400fd1:	e8 c5 02 00 00       	callq  40129b <scramble>
  400fd6:	89 c3                	mov    %eax,%ebx
  400fd8:	ba 00 00 00 00       	mov    $0x0,%edx
  400fdd:	85 ed                	test   %ebp,%ebp
  400fdf:	74 18                	je     400ff9 <initialize_target+0x6c>
  400fe1:	bf 00 00 00 00       	mov    $0x0,%edi
  400fe6:	e8 55 fd ff ff       	callq  400d40 <time@plt>
  400feb:	89 c7                	mov    %eax,%edi
  400fed:	e8 2e fc ff ff       	callq  400c20 <srandom@plt>
  400ff2:	e8 59 fd ff ff       	callq  400d50 <random@plt>
  400ff7:	89 c2                	mov    %eax,%edx
  400ff9:	01 da                	add    %ebx,%edx
  400ffb:	0f b7 d2             	movzwl %dx,%edx
  400ffe:	8d 04 d5 00 01 00 00 	lea    0x100(,%rdx,8),%eax
  401005:	89 c0                	mov    %eax,%eax
  401007:	48 89 05 92 44 20 00 	mov    %rax,0x204492(%rip)        # 6054a0 <buf_offset>
  40100e:	c6 05 13 51 20 00 72 	movb   $0x72,0x205113(%rip)        # 606128 <target_prefix>
  401015:	83 3d 8c 44 20 00 00 	cmpl   $0x0,0x20448c(%rip)        # 6054a8 <notify>
  40101c:	0f 84 ae 00 00 00    	je     4010d0 <initialize_target+0x143>
  401022:	83 3d df 44 20 00 00 	cmpl   $0x0,0x2044df(%rip)        # 605508 <is_checker>
  401029:	0f 85 a1 00 00 00    	jne    4010d0 <initialize_target+0x143>
  40102f:	be 00 01 00 00       	mov    $0x100,%esi
  401034:	48 89 e7             	mov    %rsp,%rdi
  401037:	e8 94 fd ff ff       	callq  400dd0 <gethostname@plt>
  40103c:	85 c0                	test   %eax,%eax
  40103e:	75 13                	jne    401053 <initialize_target+0xc6>
  401040:	48 8b 3d 39 41 20 00 	mov    0x204139(%rip),%rdi        # 605180 <host_table>
  401047:	bb 88 51 60 00       	mov    $0x605188,%ebx
  40104c:	48 85 ff             	test   %rdi,%rdi
  40104f:	75 16                	jne    401067 <initialize_target+0xda>
  401051:	eb 50                	jmp    4010a3 <initialize_target+0x116>
  401053:	bf 80 2d 40 00       	mov    $0x402d80,%edi
  401058:	e8 f3 fb ff ff       	callq  400c50 <puts@plt>
  40105d:	bf 08 00 00 00       	mov    $0x8,%edi
  401062:	e8 89 fd ff ff       	callq  400df0 <exit@plt>
  401067:	48 89 e6             	mov    %rsp,%rsi
  40106a:	e8 91 fb ff ff       	callq  400c00 <strcasecmp@plt>
  40106f:	85 c0                	test   %eax,%eax
  401071:	74 4c                	je     4010bf <initialize_target+0x132>
  401073:	48 83 c3 08          	add    $0x8,%rbx
  401077:	48 8b 7b f8          	mov    -0x8(%rbx),%rdi
  40107b:	48 85 ff             	test   %rdi,%rdi
  40107e:	75 e7                	jne    401067 <initialize_target+0xda>
  401080:	eb 21                	jmp    4010a3 <initialize_target+0x116>
  401082:	48 8d b4 24 00 01 00 	lea    0x100(%rsp),%rsi
  401089:	00 
  40108a:	bf b8 2d 40 00       	mov    $0x402db8,%edi
  40108f:	b8 00 00 00 00       	mov    $0x0,%eax
  401094:	e8 e7 fb ff ff       	callq  400c80 <printf@plt>
  401099:	bf 08 00 00 00       	mov    $0x8,%edi
  40109e:	e8 4d fd ff ff       	callq  400df0 <exit@plt>
  4010a3:	48 89 e6             	mov    %rsp,%rsi
  4010a6:	bf e0 2d 40 00       	mov    $0x402de0,%edi
  4010ab:	b8 00 00 00 00       	mov    $0x0,%eax
  4010b0:	e8 cb fb ff ff       	callq  400c80 <printf@plt>
  4010b5:	bf 08 00 00 00       	mov    $0x8,%edi
  4010ba:	e8 31 fd ff ff       	callq  400df0 <exit@plt>
  4010bf:	48 8d bc 24 00 01 00 	lea    0x100(%rsp),%rdi
  4010c6:	00 
  4010c7:	e8 9e 18 00 00       	callq  40296a <init_driver>
  4010cc:	85 c0                	test   %eax,%eax
  4010ce:	78 b2                	js     401082 <initialize_target+0xf5>
  4010d0:	48 81 c4 08 21 00 00 	add    $0x2108,%rsp
  4010d7:	5b                   	pop    %rbx
  4010d8:	5d                   	pop    %rbp
  4010d9:	c3                   	retq   

00000000004010da <main>:
  4010da:	41 56                	push   %r14
  4010dc:	41 55                	push   %r13
  4010de:	41 54                	push   %r12
  4010e0:	55                   	push   %rbp
  4010e1:	53                   	push   %rbx
  4010e2:	41 89 fc             	mov    %edi,%r12d
  4010e5:	48 89 f3             	mov    %rsi,%rbx
  4010e8:	be 79 1d 40 00       	mov    $0x401d79,%esi
  4010ed:	bf 0b 00 00 00       	mov    $0xb,%edi
  4010f2:	e8 e9 fb ff ff       	callq  400ce0 <signal@plt>
  4010f7:	be 2b 1d 40 00       	mov    $0x401d2b,%esi
  4010fc:	bf 07 00 00 00       	mov    $0x7,%edi
  401101:	e8 da fb ff ff       	callq  400ce0 <signal@plt>
  401106:	be c7 1d 40 00       	mov    $0x401dc7,%esi
  40110b:	bf 04 00 00 00       	mov    $0x4,%edi
  401110:	e8 cb fb ff ff       	callq  400ce0 <signal@plt>
  401115:	bd bd 2e 40 00       	mov    $0x402ebd,%ebp
  40111a:	83 3d e7 43 20 00 00 	cmpl   $0x0,0x2043e7(%rip)        # 605508 <is_checker>
  401121:	74 1e                	je     401141 <main+0x67>
  401123:	be 15 1e 40 00       	mov    $0x401e15,%esi
  401128:	bf 0e 00 00 00       	mov    $0xe,%edi
  40112d:	e8 ae fb ff ff       	callq  400ce0 <signal@plt>
  401132:	bf 05 00 00 00       	mov    $0x5,%edi
  401137:	e8 64 fb ff ff       	callq  400ca0 <alarm@plt>
  40113c:	bd c2 2e 40 00       	mov    $0x402ec2,%ebp
  401141:	48 8b 05 78 43 20 00 	mov    0x204378(%rip),%rax        # 6054c0 <stdin@@GLIBC_2.2.5>
  401148:	48 89 05 a1 43 20 00 	mov    %rax,0x2043a1(%rip)        # 6054f0 <infile>
  40114f:	41 bd 00 00 00 00    	mov    $0x0,%r13d
  401155:	41 be 00 00 00 00    	mov    $0x0,%r14d
  40115b:	e9 b9 00 00 00       	jmpq   401219 <main+0x13f>
  401160:	83 e8 61             	sub    $0x61,%eax
  401163:	3c 10                	cmp    $0x10,%al
  401165:	0f 87 93 00 00 00    	ja     4011fe <main+0x124>
  40116b:	0f b6 c0             	movzbl %al,%eax
  40116e:	ff 24 c5 08 2f 40 00 	jmpq   *0x402f08(,%rax,8)
  401175:	48 8b 3b             	mov    (%rbx),%rdi
  401178:	e8 90 fd ff ff       	callq  400f0d <usage>
  40117d:	be 70 30 40 00       	mov    $0x403070,%esi
  401182:	48 8b 3d 3f 43 20 00 	mov    0x20433f(%rip),%rdi        # 6054c8 <optarg@@GLIBC_2.2.5>
  401189:	e8 12 fc ff ff       	callq  400da0 <fopen@plt>
  40118e:	48 89 05 5b 43 20 00 	mov    %rax,0x20435b(%rip)        # 6054f0 <infile>
  401195:	48 85 c0             	test   %rax,%rax
  401198:	75 7f                	jne    401219 <main+0x13f>
  40119a:	48 8b 15 27 43 20 00 	mov    0x204327(%rip),%rdx        # 6054c8 <optarg@@GLIBC_2.2.5>
  4011a1:	be ca 2e 40 00       	mov    $0x402eca,%esi
  4011a6:	48 8b 3d 23 43 20 00 	mov    0x204323(%rip),%rdi        # 6054d0 <stderr@@GLIBC_2.2.5>
  4011ad:	e8 4e fb ff ff       	callq  400d00 <fprintf@plt>
  4011b2:	b8 01 00 00 00       	mov    $0x1,%eax
  4011b7:	e9 d6 00 00 00       	jmpq   401292 <main+0x1b8>
  4011bc:	ba 10 00 00 00       	mov    $0x10,%edx
  4011c1:	be 00 00 00 00       	mov    $0x0,%esi
  4011c6:	48 8b 3d fb 42 20 00 	mov    0x2042fb(%rip),%rdi        # 6054c8 <optarg@@GLIBC_2.2.5>
  4011cd:	e8 ee fb ff ff       	callq  400dc0 <strtoul@plt>
  4011d2:	41 89 c6             	mov    %eax,%r14d
  4011d5:	eb 42                	jmp    401219 <main+0x13f>
  4011d7:	ba 0a 00 00 00       	mov    $0xa,%edx
  4011dc:	be 00 00 00 00       	mov    $0x0,%esi
  4011e1:	48 8b 3d e0 42 20 00 	mov    0x2042e0(%rip),%rdi        # 6054c8 <optarg@@GLIBC_2.2.5>
  4011e8:	e8 33 fb ff ff       	callq  400d20 <strtol@plt>
  4011ed:	41 89 c5             	mov    %eax,%r13d
  4011f0:	eb 27                	jmp    401219 <main+0x13f>
  4011f2:	c7 05 ac 42 20 00 00 	movl   $0x0,0x2042ac(%rip)        # 6054a8 <notify>
  4011f9:	00 00 00 
  4011fc:	eb 1b                	jmp    401219 <main+0x13f>
  4011fe:	40 0f be f6          	movsbl %sil,%esi
  401202:	bf e7 2e 40 00       	mov    $0x402ee7,%edi
  401207:	b8 00 00 00 00       	mov    $0x0,%eax
  40120c:	e8 6f fa ff ff       	callq  400c80 <printf@plt>
  401211:	48 8b 3b             	mov    (%rbx),%rdi
  401214:	e8 f4 fc ff ff       	callq  400f0d <usage>
  401219:	48 89 ea             	mov    %rbp,%rdx
  40121c:	48 89 de             	mov    %rbx,%rsi
  40121f:	44 89 e7             	mov    %r12d,%edi
  401222:	e8 89 fb ff ff       	callq  400db0 <getopt@plt>
  401227:	89 c6                	mov    %eax,%esi
  401229:	3c ff                	cmp    $0xff,%al
  40122b:	0f 85 2f ff ff ff    	jne    401160 <main+0x86>
  401231:	be 01 00 00 00       	mov    $0x1,%esi
  401236:	44 89 ef             	mov    %r13d,%edi
  401239:	e8 4f fd ff ff       	callq  400f8d <initialize_target>
  40123e:	83 3d c3 42 20 00 00 	cmpl   $0x0,0x2042c3(%rip)        # 605508 <is_checker>
  401245:	74 25                	je     40126c <main+0x192>
  401247:	44 3b 35 b2 42 20 00 	cmp    0x2042b2(%rip),%r14d        # 605500 <authkey>
  40124e:	74 1c                	je     40126c <main+0x192>
  401250:	44 89 f6             	mov    %r14d,%esi
  401253:	bf 20 2e 40 00       	mov    $0x402e20,%edi
  401258:	b8 00 00 00 00       	mov    $0x0,%eax
  40125d:	e8 1e fa ff ff       	callq  400c80 <printf@plt>
  401262:	b8 00 00 00 00       	mov    $0x0,%eax
  401267:	e8 25 07 00 00       	callq  401991 <check_fail>
  40126c:	8b 35 92 42 20 00    	mov    0x204292(%rip),%esi        # 605504 <cookie>
  401272:	bf fa 2e 40 00       	mov    $0x402efa,%edi
  401277:	b8 00 00 00 00       	mov    $0x0,%eax
  40127c:	e8 ff f9 ff ff       	callq  400c80 <printf@plt>
  401281:	48 8b 3d 18 42 20 00 	mov    0x204218(%rip),%rdi        # 6054a0 <buf_offset>
  401288:	e8 d6 0b 00 00       	callq  401e63 <launch>
  40128d:	b8 00 00 00 00       	mov    $0x0,%eax
  401292:	5b                   	pop    %rbx
  401293:	5d                   	pop    %rbp
  401294:	41 5c                	pop    %r12
  401296:	41 5d                	pop    %r13
  401298:	41 5e                	pop    %r14
  40129a:	c3                   	retq   

000000000040129b <scramble>:
  40129b:	b8 00 00 00 00       	mov    $0x0,%eax
  4012a0:	89 c2                	mov    %eax,%edx
  4012a2:	89 7c 94 d0          	mov    %edi,-0x30(%rsp,%rdx,4)
  4012a6:	83 c0 01             	add    $0x1,%eax
  4012a9:	81 c7 9e c8 00 00    	add    $0xc89e,%edi
  4012af:	83 f8 0a             	cmp    $0xa,%eax
  4012b2:	75 ec                	jne    4012a0 <scramble+0x5>
  4012b4:	8b 44 24 e0          	mov    -0x20(%rsp),%eax
  4012b8:	69 c0 1e 05 00 00    	imul   $0x51e,%eax,%eax
  4012be:	89 44 24 e0          	mov    %eax,-0x20(%rsp)
  4012c2:	8b 44 24 d8          	mov    -0x28(%rsp),%eax
  4012c6:	69 c0 98 ab 00 00    	imul   $0xab98,%eax,%eax
  4012cc:	89 44 24 d8          	mov    %eax,-0x28(%rsp)
  4012d0:	8b 44 24 f4          	mov    -0xc(%rsp),%eax
  4012d4:	69 c0 20 b0 00 00    	imul   $0xb020,%eax,%eax
  4012da:	89 44 24 f4          	mov    %eax,-0xc(%rsp)
  4012de:	8b 44 24 f4          	mov    -0xc(%rsp),%eax
  4012e2:	69 c0 ef f2 00 00    	imul   $0xf2ef,%eax,%eax
  4012e8:	89 44 24 f4          	mov    %eax,-0xc(%rsp)
  4012ec:	8b 44 24 ec          	mov    -0x14(%rsp),%eax
  4012f0:	69 c0 32 07 00 00    	imul   $0x732,%eax,%eax
  4012f6:	89 44 24 ec          	mov    %eax,-0x14(%rsp)
  4012fa:	8b 44 24 dc          	mov    -0x24(%rsp),%eax
  4012fe:	69 c0 dc d7 00 00    	imul   $0xd7dc,%eax,%eax
  401304:	89 44 24 dc          	mov    %eax,-0x24(%rsp)
  401308:	8b 44 24 d4          	mov    -0x2c(%rsp),%eax
  40130c:	69 c0 33 9a 00 00    	imul   $0x9a33,%eax,%eax
  401312:	89 44 24 d4          	mov    %eax,-0x2c(%rsp)
  401316:	8b 44 24 d4          	mov    -0x2c(%rsp),%eax
  40131a:	69 c0 cf 57 00 00    	imul   $0x57cf,%eax,%eax
  401320:	89 44 24 d4          	mov    %eax,-0x2c(%rsp)
  401324:	8b 44 24 dc          	mov    -0x24(%rsp),%eax
  401328:	69 c0 a8 13 00 00    	imul   $0x13a8,%eax,%eax
  40132e:	89 44 24 dc          	mov    %eax,-0x24(%rsp)
  401332:	8b 44 24 d4          	mov    -0x2c(%rsp),%eax
  401336:	69 c0 09 8f 00 00    	imul   $0x8f09,%eax,%eax
  40133c:	89 44 24 d4          	mov    %eax,-0x2c(%rsp)
  401340:	8b 44 24 f0          	mov    -0x10(%rsp),%eax
  401344:	69 c0 22 7a 00 00    	imul   $0x7a22,%eax,%eax
  40134a:	89 44 24 f0          	mov    %eax,-0x10(%rsp)
  40134e:	8b 44 24 d8          	mov    -0x28(%rsp),%eax
  401352:	69 c0 ae 31 00 00    	imul   $0x31ae,%eax,%eax
  401358:	89 44 24 d8          	mov    %eax,-0x28(%rsp)
  40135c:	8b 44 24 dc          	mov    -0x24(%rsp),%eax
  401360:	69 c0 4d c8 00 00    	imul   $0xc84d,%eax,%eax
  401366:	89 44 24 dc          	mov    %eax,-0x24(%rsp)
  40136a:	8b 44 24 f4          	mov    -0xc(%rsp),%eax
  40136e:	69 c0 3a 24 00 00    	imul   $0x243a,%eax,%eax
  401374:	89 44 24 f4          	mov    %eax,-0xc(%rsp)
  401378:	8b 44 24 e8          	mov    -0x18(%rsp),%eax
  40137c:	69 c0 37 73 00 00    	imul   $0x7337,%eax,%eax
  401382:	89 44 24 e8          	mov    %eax,-0x18(%rsp)
  401386:	8b 44 24 d4          	mov    -0x2c(%rsp),%eax
  40138a:	69 c0 f9 0c 00 00    	imul   $0xcf9,%eax,%eax
  401390:	89 44 24 d4          	mov    %eax,-0x2c(%rsp)
  401394:	8b 44 24 f4          	mov    -0xc(%rsp),%eax
  401398:	69 c0 db d8 00 00    	imul   $0xd8db,%eax,%eax
  40139e:	89 44 24 f4          	mov    %eax,-0xc(%rsp)
  4013a2:	8b 44 24 ec          	mov    -0x14(%rsp),%eax
  4013a6:	69 c0 34 a5 00 00    	imul   $0xa534,%eax,%eax
  4013ac:	89 44 24 ec          	mov    %eax,-0x14(%rsp)
  4013b0:	8b 44 24 d4          	mov    -0x2c(%rsp),%eax
  4013b4:	69 c0 e4 90 00 00    	imul   $0x90e4,%eax,%eax
  4013ba:	89 44 24 d4          	mov    %eax,-0x2c(%rsp)
  4013be:	8b 44 24 e8          	mov    -0x18(%rsp),%eax
  4013c2:	69 c0 22 13 00 00    	imul   $0x1322,%eax,%eax
  4013c8:	89 44 24 e8          	mov    %eax,-0x18(%rsp)
  4013cc:	8b 44 24 e4          	mov    -0x1c(%rsp),%eax
  4013d0:	69 c0 80 90 00 00    	imul   $0x9080,%eax,%eax
  4013d6:	89 44 24 e4          	mov    %eax,-0x1c(%rsp)
  4013da:	8b 44 24 d0          	mov    -0x30(%rsp),%eax
  4013de:	69 c0 e9 7e 00 00    	imul   $0x7ee9,%eax,%eax
  4013e4:	89 44 24 d0          	mov    %eax,-0x30(%rsp)
  4013e8:	8b 44 24 ec          	mov    -0x14(%rsp),%eax
  4013ec:	69 c0 2a 9d 00 00    	imul   $0x9d2a,%eax,%eax
  4013f2:	89 44 24 ec          	mov    %eax,-0x14(%rsp)
  4013f6:	8b 44 24 d8          	mov    -0x28(%rsp),%eax
  4013fa:	69 c0 fd 9e 00 00    	imul   $0x9efd,%eax,%eax
  401400:	89 44 24 d8          	mov    %eax,-0x28(%rsp)
  401404:	8b 44 24 e8          	mov    -0x18(%rsp),%eax
  401408:	69 c0 a0 15 00 00    	imul   $0x15a0,%eax,%eax
  40140e:	89 44 24 e8          	mov    %eax,-0x18(%rsp)
  401412:	8b 44 24 e8          	mov    -0x18(%rsp),%eax
  401416:	69 c0 70 81 00 00    	imul   $0x8170,%eax,%eax
  40141c:	89 44 24 e8          	mov    %eax,-0x18(%rsp)
  401420:	8b 44 24 d0          	mov    -0x30(%rsp),%eax
  401424:	69 c0 09 d2 00 00    	imul   $0xd209,%eax,%eax
  40142a:	89 44 24 d0          	mov    %eax,-0x30(%rsp)
  40142e:	8b 44 24 d0          	mov    -0x30(%rsp),%eax
  401432:	69 c0 40 96 00 00    	imul   $0x9640,%eax,%eax
  401438:	89 44 24 d0          	mov    %eax,-0x30(%rsp)
  40143c:	8b 44 24 e0          	mov    -0x20(%rsp),%eax
  401440:	69 c0 40 e6 00 00    	imul   $0xe640,%eax,%eax
  401446:	89 44 24 e0          	mov    %eax,-0x20(%rsp)
  40144a:	8b 44 24 dc          	mov    -0x24(%rsp),%eax
  40144e:	69 c0 b1 de 00 00    	imul   $0xdeb1,%eax,%eax
  401454:	89 44 24 dc          	mov    %eax,-0x24(%rsp)
  401458:	8b 44 24 ec          	mov    -0x14(%rsp),%eax
  40145c:	69 c0 c3 44 00 00    	imul   $0x44c3,%eax,%eax
  401462:	89 44 24 ec          	mov    %eax,-0x14(%rsp)
  401466:	8b 44 24 e8          	mov    -0x18(%rsp),%eax
  40146a:	69 c0 cc d1 00 00    	imul   $0xd1cc,%eax,%eax
  401470:	89 44 24 e8          	mov    %eax,-0x18(%rsp)
  401474:	8b 44 24 d0          	mov    -0x30(%rsp),%eax
  401478:	69 c0 3c a4 00 00    	imul   $0xa43c,%eax,%eax
  40147e:	89 44 24 d0          	mov    %eax,-0x30(%rsp)
  401482:	8b 44 24 f4          	mov    -0xc(%rsp),%eax
  401486:	69 c0 99 a6 00 00    	imul   $0xa699,%eax,%eax
  40148c:	89 44 24 f4          	mov    %eax,-0xc(%rsp)
  401490:	8b 44 24 d8          	mov    -0x28(%rsp),%eax
  401494:	69 c0 24 0f 00 00    	imul   $0xf24,%eax,%eax
  40149a:	89 44 24 d8          	mov    %eax,-0x28(%rsp)
  40149e:	8b 44 24 e0          	mov    -0x20(%rsp),%eax
  4014a2:	69 c0 37 cd 00 00    	imul   $0xcd37,%eax,%eax
  4014a8:	89 44 24 e0          	mov    %eax,-0x20(%rsp)
  4014ac:	8b 44 24 ec          	mov    -0x14(%rsp),%eax
  4014b0:	69 c0 bb a4 00 00    	imul   $0xa4bb,%eax,%eax
  4014b6:	89 44 24 ec          	mov    %eax,-0x14(%rsp)
  4014ba:	8b 44 24 dc          	mov    -0x24(%rsp),%eax
  4014be:	69 c0 58 ca 00 00    	imul   $0xca58,%eax,%eax
  4014c4:	89 44 24 dc          	mov    %eax,-0x24(%rsp)
  4014c8:	8b 44 24 f0          	mov    -0x10(%rsp),%eax
  4014cc:	69 c0 da 22 00 00    	imul   $0x22da,%eax,%eax
  4014d2:	89 44 24 f0          	mov    %eax,-0x10(%rsp)
  4014d6:	8b 44 24 f0          	mov    -0x10(%rsp),%eax
  4014da:	69 c0 b8 f2 00 00    	imul   $0xf2b8,%eax,%eax
  4014e0:	89 44 24 f0          	mov    %eax,-0x10(%rsp)
  4014e4:	8b 44 24 e8          	mov    -0x18(%rsp),%eax
  4014e8:	69 c0 5c 97 00 00    	imul   $0x975c,%eax,%eax
  4014ee:	89 44 24 e8          	mov    %eax,-0x18(%rsp)
  4014f2:	8b 44 24 e4          	mov    -0x1c(%rsp),%eax
  4014f6:	69 c0 3d c8 00 00    	imul   $0xc83d,%eax,%eax
  4014fc:	89 44 24 e4          	mov    %eax,-0x1c(%rsp)
  401500:	8b 44 24 e4          	mov    -0x1c(%rsp),%eax
  401504:	69 c0 46 27 00 00    	imul   $0x2746,%eax,%eax
  40150a:	89 44 24 e4          	mov    %eax,-0x1c(%rsp)
  40150e:	8b 44 24 e0          	mov    -0x20(%rsp),%eax
  401512:	69 c0 bc 03 00 00    	imul   $0x3bc,%eax,%eax
  401518:	89 44 24 e0          	mov    %eax,-0x20(%rsp)
  40151c:	8b 44 24 f4          	mov    -0xc(%rsp),%eax
  401520:	69 c0 f8 18 00 00    	imul   $0x18f8,%eax,%eax
  401526:	89 44 24 f4          	mov    %eax,-0xc(%rsp)
  40152a:	8b 44 24 dc          	mov    -0x24(%rsp),%eax
  40152e:	69 c0 fd 66 00 00    	imul   $0x66fd,%eax,%eax
  401534:	89 44 24 dc          	mov    %eax,-0x24(%rsp)
  401538:	8b 44 24 e0          	mov    -0x20(%rsp),%eax
  40153c:	69 c0 18 ce 00 00    	imul   $0xce18,%eax,%eax
  401542:	89 44 24 e0          	mov    %eax,-0x20(%rsp)
  401546:	8b 44 24 ec          	mov    -0x14(%rsp),%eax
  40154a:	69 c0 59 7b 00 00    	imul   $0x7b59,%eax,%eax
  401550:	89 44 24 ec          	mov    %eax,-0x14(%rsp)
  401554:	8b 44 24 e0          	mov    -0x20(%rsp),%eax
  401558:	69 c0 ca af 00 00    	imul   $0xafca,%eax,%eax
  40155e:	89 44 24 e0          	mov    %eax,-0x20(%rsp)
  401562:	8b 44 24 d0          	mov    -0x30(%rsp),%eax
  401566:	69 c0 76 a7 00 00    	imul   $0xa776,%eax,%eax
  40156c:	89 44 24 d0          	mov    %eax,-0x30(%rsp)
  401570:	8b 44 24 dc          	mov    -0x24(%rsp),%eax
  401574:	69 c0 ae db 00 00    	imul   $0xdbae,%eax,%eax
  40157a:	89 44 24 dc          	mov    %eax,-0x24(%rsp)
  40157e:	8b 44 24 e4          	mov    -0x1c(%rsp),%eax
  401582:	69 c0 93 5e 00 00    	imul   $0x5e93,%eax,%eax
  401588:	89 44 24 e4          	mov    %eax,-0x1c(%rsp)
  40158c:	8b 44 24 d4          	mov    -0x2c(%rsp),%eax
  401590:	69 c0 ce c0 00 00    	imul   $0xc0ce,%eax,%eax
  401596:	89 44 24 d4          	mov    %eax,-0x2c(%rsp)
  40159a:	8b 44 24 e8          	mov    -0x18(%rsp),%eax
  40159e:	69 c0 4f c2 00 00    	imul   $0xc24f,%eax,%eax
  4015a4:	89 44 24 e8          	mov    %eax,-0x18(%rsp)
  4015a8:	8b 44 24 d4          	mov    -0x2c(%rsp),%eax
  4015ac:	69 c0 41 92 00 00    	imul   $0x9241,%eax,%eax
  4015b2:	89 44 24 d4          	mov    %eax,-0x2c(%rsp)
  4015b6:	8b 44 24 f0          	mov    -0x10(%rsp),%eax
  4015ba:	69 c0 23 1c 00 00    	imul   $0x1c23,%eax,%eax
  4015c0:	89 44 24 f0          	mov    %eax,-0x10(%rsp)
  4015c4:	8b 44 24 d8          	mov    -0x28(%rsp),%eax
  4015c8:	69 c0 2f 29 00 00    	imul   $0x292f,%eax,%eax
  4015ce:	89 44 24 d8          	mov    %eax,-0x28(%rsp)
  4015d2:	8b 44 24 ec          	mov    -0x14(%rsp),%eax
  4015d6:	69 c0 03 93 00 00    	imul   $0x9303,%eax,%eax
  4015dc:	89 44 24 ec          	mov    %eax,-0x14(%rsp)
  4015e0:	8b 44 24 dc          	mov    -0x24(%rsp),%eax
  4015e4:	69 c0 dd 42 00 00    	imul   $0x42dd,%eax,%eax
  4015ea:	89 44 24 dc          	mov    %eax,-0x24(%rsp)
  4015ee:	8b 44 24 d4          	mov    -0x2c(%rsp),%eax
  4015f2:	69 c0 fc 5d 00 00    	imul   $0x5dfc,%eax,%eax
  4015f8:	89 44 24 d4          	mov    %eax,-0x2c(%rsp)
  4015fc:	8b 44 24 dc          	mov    -0x24(%rsp),%eax
  401600:	69 c0 2d 79 00 00    	imul   $0x792d,%eax,%eax
  401606:	89 44 24 dc          	mov    %eax,-0x24(%rsp)
  40160a:	8b 44 24 d4          	mov    -0x2c(%rsp),%eax
  40160e:	69 c0 90 b9 00 00    	imul   $0xb990,%eax,%eax
  401614:	89 44 24 d4          	mov    %eax,-0x2c(%rsp)
  401618:	8b 44 24 ec          	mov    -0x14(%rsp),%eax
  40161c:	69 c0 c3 fd 00 00    	imul   $0xfdc3,%eax,%eax
  401622:	89 44 24 ec          	mov    %eax,-0x14(%rsp)
  401626:	8b 44 24 e8          	mov    -0x18(%rsp),%eax
  40162a:	69 c0 9a b9 00 00    	imul   $0xb99a,%eax,%eax
  401630:	89 44 24 e8          	mov    %eax,-0x18(%rsp)
  401634:	8b 44 24 f0          	mov    -0x10(%rsp),%eax
  401638:	69 c0 dc 56 00 00    	imul   $0x56dc,%eax,%eax
  40163e:	89 44 24 f0          	mov    %eax,-0x10(%rsp)
  401642:	8b 44 24 d0          	mov    -0x30(%rsp),%eax
  401646:	69 c0 7c 6c 00 00    	imul   $0x6c7c,%eax,%eax
  40164c:	89 44 24 d0          	mov    %eax,-0x30(%rsp)
  401650:	8b 44 24 e4          	mov    -0x1c(%rsp),%eax
  401654:	69 c0 be d5 00 00    	imul   $0xd5be,%eax,%eax
  40165a:	89 44 24 e4          	mov    %eax,-0x1c(%rsp)
  40165e:	8b 44 24 e0          	mov    -0x20(%rsp),%eax
  401662:	69 c0 f4 b2 00 00    	imul   $0xb2f4,%eax,%eax
  401668:	89 44 24 e0          	mov    %eax,-0x20(%rsp)
  40166c:	8b 44 24 d4          	mov    -0x2c(%rsp),%eax
  401670:	69 c0 fb f3 00 00    	imul   $0xf3fb,%eax,%eax
  401676:	89 44 24 d4          	mov    %eax,-0x2c(%rsp)
  40167a:	8b 44 24 d0          	mov    -0x30(%rsp),%eax
  40167e:	69 c0 35 7a 00 00    	imul   $0x7a35,%eax,%eax
  401684:	89 44 24 d0          	mov    %eax,-0x30(%rsp)
  401688:	8b 44 24 f0          	mov    -0x10(%rsp),%eax
  40168c:	69 c0 4a 2a 00 00    	imul   $0x2a4a,%eax,%eax
  401692:	89 44 24 f0          	mov    %eax,-0x10(%rsp)
  401696:	8b 44 24 dc          	mov    -0x24(%rsp),%eax
  40169a:	69 c0 da af 00 00    	imul   $0xafda,%eax,%eax
  4016a0:	89 44 24 dc          	mov    %eax,-0x24(%rsp)
  4016a4:	8b 44 24 e8          	mov    -0x18(%rsp),%eax
  4016a8:	69 c0 b8 7a 00 00    	imul   $0x7ab8,%eax,%eax
  4016ae:	89 44 24 e8          	mov    %eax,-0x18(%rsp)
  4016b2:	ba 00 00 00 00       	mov    $0x0,%edx
  4016b7:	b8 00 00 00 00       	mov    $0x0,%eax
  4016bc:	89 d1                	mov    %edx,%ecx
  4016be:	8b 4c 8c d0          	mov    -0x30(%rsp,%rcx,4),%ecx
  4016c2:	01 c8                	add    %ecx,%eax
  4016c4:	83 c2 01             	add    $0x1,%edx
  4016c7:	83 fa 0a             	cmp    $0xa,%edx
  4016ca:	75 f0                	jne    4016bc <scramble+0x421>
  4016cc:	f3 c3                	repz retq 

00000000004016ce <getbuf>:
  4016ce:	48 83 ec 28          	sub    $0x28,%rsp
  4016d2:	48 89 e7             	mov    %rsp,%rdi
  4016d5:	e8 e6 02 00 00       	callq  4019c0 <Gets>
  4016da:	b8 01 00 00 00       	mov    $0x1,%eax
  4016df:	48 83 c4 28          	add    $0x28,%rsp
  4016e3:	c3                   	retq   

00000000004016e4 <touch1>:
  4016e4:	48 83 ec 08          	sub    $0x8,%rsp
  4016e8:	c7 05 0a 3e 20 00 01 	movl   $0x1,0x203e0a(%rip)        # 6054fc <vlevel>
  4016ef:	00 00 00 
  4016f2:	bf dd 30 40 00       	mov    $0x4030dd,%edi
  4016f7:	e8 54 f5 ff ff       	callq  400c50 <puts@plt>
  4016fc:	bf 01 00 00 00       	mov    $0x1,%edi
  401701:	e8 41 05 00 00       	callq  401c47 <validate>
  401706:	bf 00 00 00 00       	mov    $0x0,%edi
  40170b:	e8 e0 f6 ff ff       	callq  400df0 <exit@plt>

0000000000401710 <touch2>:
  401710:	48 83 ec 08          	sub    $0x8,%rsp
  401714:	89 fe                	mov    %edi,%esi
  401716:	c7 05 dc 3d 20 00 02 	movl   $0x2,0x203ddc(%rip)        # 6054fc <vlevel>
  40171d:	00 00 00 
  401720:	3b 3d de 3d 20 00    	cmp    0x203dde(%rip),%edi        # 605504 <cookie>
  401726:	75 1b                	jne    401743 <touch2+0x33>
  401728:	bf 00 31 40 00       	mov    $0x403100,%edi
  40172d:	b8 00 00 00 00       	mov    $0x0,%eax
  401732:	e8 49 f5 ff ff       	callq  400c80 <printf@plt>
  401737:	bf 02 00 00 00       	mov    $0x2,%edi
  40173c:	e8 06 05 00 00       	callq  401c47 <validate>
  401741:	eb 19                	jmp    40175c <touch2+0x4c>
  401743:	bf 28 31 40 00       	mov    $0x403128,%edi
  401748:	b8 00 00 00 00       	mov    $0x0,%eax
  40174d:	e8 2e f5 ff ff       	callq  400c80 <printf@plt>
  401752:	bf 02 00 00 00       	mov    $0x2,%edi
  401757:	e8 a7 05 00 00       	callq  401d03 <fail>
  40175c:	bf 00 00 00 00       	mov    $0x0,%edi
  401761:	e8 8a f6 ff ff       	callq  400df0 <exit@plt>

0000000000401766 <hexmatch>:
  401766:	41 54                	push   %r12
  401768:	55                   	push   %rbp
  401769:	53                   	push   %rbx
  40176a:	48 83 ec 70          	sub    $0x70,%rsp
  40176e:	41 89 fc             	mov    %edi,%r12d
  401771:	48 89 f5             	mov    %rsi,%rbp
  401774:	e8 d7 f5 ff ff       	callq  400d50 <random@plt>
  401779:	48 89 c1             	mov    %rax,%rcx
  40177c:	48 ba 0b d7 a3 70 3d 	movabs $0xa3d70a3d70a3d70b,%rdx
  401783:	0a d7 a3 
  401786:	48 f7 ea             	imul   %rdx
  401789:	48 8d 04 0a          	lea    (%rdx,%rcx,1),%rax
  40178d:	48 c1 f8 06          	sar    $0x6,%rax
  401791:	48 89 ce             	mov    %rcx,%rsi
  401794:	48 c1 fe 3f          	sar    $0x3f,%rsi
  401798:	48 29 f0             	sub    %rsi,%rax
  40179b:	48 8d 04 80          	lea    (%rax,%rax,4),%rax
  40179f:	48 8d 04 80          	lea    (%rax,%rax,4),%rax
  4017a3:	48 c1 e0 02          	shl    $0x2,%rax
  4017a7:	48 29 c1             	sub    %rax,%rcx
  4017aa:	48 8d 1c 0c          	lea    (%rsp,%rcx,1),%rbx
  4017ae:	44 89 e2             	mov    %r12d,%edx
  4017b1:	be fa 30 40 00       	mov    $0x4030fa,%esi
  4017b6:	48 89 df             	mov    %rbx,%rdi
  4017b9:	b8 00 00 00 00       	mov    $0x0,%eax
  4017be:	e8 1d f6 ff ff       	callq  400de0 <sprintf@plt>
  4017c3:	ba 09 00 00 00       	mov    $0x9,%edx
  4017c8:	48 89 de             	mov    %rbx,%rsi
  4017cb:	48 89 ef             	mov    %rbp,%rdi
  4017ce:	e8 5d f4 ff ff       	callq  400c30 <strncmp@plt>
  4017d3:	85 c0                	test   %eax,%eax
  4017d5:	0f 94 c0             	sete   %al
  4017d8:	0f b6 c0             	movzbl %al,%eax
  4017db:	48 83 c4 70          	add    $0x70,%rsp
  4017df:	5b                   	pop    %rbx
  4017e0:	5d                   	pop    %rbp
  4017e1:	41 5c                	pop    %r12
  4017e3:	c3                   	retq   

00000000004017e4 <touch3>:
  4017e4:	53                   	push   %rbx
  4017e5:	48 89 fb             	mov    %rdi,%rbx
  4017e8:	c7 05 0a 3d 20 00 03 	movl   $0x3,0x203d0a(%rip)        # 6054fc <vlevel>
  4017ef:	00 00 00 
  4017f2:	48 89 fe             	mov    %rdi,%rsi
  4017f5:	8b 3d 09 3d 20 00    	mov    0x203d09(%rip),%edi        # 605504 <cookie>
  4017fb:	e8 66 ff ff ff       	callq  401766 <hexmatch>
  401800:	85 c0                	test   %eax,%eax
  401802:	74 1e                	je     401822 <touch3+0x3e>
  401804:	48 89 de             	mov    %rbx,%rsi
  401807:	bf 50 31 40 00       	mov    $0x403150,%edi
  40180c:	b8 00 00 00 00       	mov    $0x0,%eax
  401811:	e8 6a f4 ff ff       	callq  400c80 <printf@plt>
  401816:	bf 03 00 00 00       	mov    $0x3,%edi
  40181b:	e8 27 04 00 00       	callq  401c47 <validate>
  401820:	eb 1c                	jmp    40183e <touch3+0x5a>
  401822:	48 89 de             	mov    %rbx,%rsi
  401825:	bf 78 31 40 00       	mov    $0x403178,%edi
  40182a:	b8 00 00 00 00       	mov    $0x0,%eax
  40182f:	e8 4c f4 ff ff       	callq  400c80 <printf@plt>
  401834:	bf 03 00 00 00       	mov    $0x3,%edi
  401839:	e8 c5 04 00 00       	callq  401d03 <fail>
  40183e:	bf 00 00 00 00       	mov    $0x0,%edi
  401843:	e8 a8 f5 ff ff       	callq  400df0 <exit@plt>

0000000000401848 <test>:
  401848:	48 83 ec 08          	sub    $0x8,%rsp
  40184c:	b8 00 00 00 00       	mov    $0x0,%eax
  401851:	e8 78 fe ff ff       	callq  4016ce <getbuf>
  401856:	89 c6                	mov    %eax,%esi
  401858:	bf a0 31 40 00       	mov    $0x4031a0,%edi
  40185d:	b8 00 00 00 00       	mov    $0x0,%eax
  401862:	e8 19 f4 ff ff       	callq  400c80 <printf@plt>
  401867:	48 83 c4 08          	add    $0x8,%rsp
  40186b:	c3                   	retq   

000000000040186c <start_farm>:
  40186c:	b8 01 00 00 00       	mov    $0x1,%eax
  401871:	c3                   	retq   

0000000000401872 <addval_202>:
  401872:	8d 87 4c 48 89 c7    	lea    -0x3876b7b4(%rdi),%eax
  401878:	c3                   	retq   

0000000000401879 <setval_177>:
  401879:	c7 07 d8 90 90 90    	movl   $0x909090d8,(%rdi)
  40187f:	c3                   	retq   

0000000000401880 <setval_321>:
  401880:	c7 07 68 89 c7 90    	movl   $0x90c78968,(%rdi)
  401886:	c3                   	retq   

0000000000401887 <getval_198>:
  401887:	b8 5b 14 78 90       	mov    $0x9078145b,%eax
  40188c:	c3                   	retq   

000000000040188d <setval_336>:
  40188d:	c7 07 a1 58 c3 0a    	movl   $0xac358a1,(%rdi)
  401893:	c3                   	retq   

0000000000401894 <setval_266>:
  401894:	c7 07 48 89 c7 91    	movl   $0x91c78948,(%rdi)
  40189a:	c3                   	retq   

000000000040189b <getval_275>:
  40189b:	b8 75 48 89 c7       	mov    $0xc7894875,%eax
  4018a0:	c3                   	retq   

00000000004018a1 <getval_209>:
  4018a1:	b8 58 90 90 c3       	mov    $0xc3909058,%eax
  4018a6:	c3                   	retq   

00000000004018a7 <mid_farm>:
  4018a7:	b8 01 00 00 00       	mov    $0x1,%eax
  4018ac:	c3                   	retq   

00000000004018ad <add_xy>:
  4018ad:	48 8d 04 37          	lea    (%rdi,%rsi,1),%rax
  4018b1:	c3                   	retq   

00000000004018b2 <addval_496>:
  4018b2:	8d 87 48 89 e0 90    	lea    -0x6f1f76b8(%rdi),%eax
  4018b8:	c3                   	retq   

00000000004018b9 <addval_358>:
  4018b9:	8d 87 89 d6 00 d2    	lea    -0x2dff2977(%rdi),%eax
  4018bf:	c3                   	retq   

00000000004018c0 <setval_425>:
  4018c0:	c7 07 8b c1 90 c3    	movl   $0xc390c18b,(%rdi)
  4018c6:	c3                   	retq   

00000000004018c7 <getval_271>:
  4018c7:	b8 99 ca 90 c3       	mov    $0xc390ca99,%eax
  4018cc:	c3                   	retq   

00000000004018cd <setval_189>:
  4018cd:	c7 07 89 ca 20 d2    	movl   $0xd220ca89,(%rdi)
  4018d3:	c3                   	retq   

00000000004018d4 <setval_298>:
  4018d4:	c7 07 89 d6 a4 c0    	movl   $0xc0a4d689,(%rdi)
  4018da:	c3                   	retq   

00000000004018db <setval_315>:
  4018db:	c7 07 89 c1 30 c9    	movl   $0xc930c189,(%rdi)
  4018e1:	c3                   	retq   

00000000004018e2 <setval_378>:
  4018e2:	c7 07 81 c1 08 c0    	movl   $0xc008c181,(%rdi)
  4018e8:	c3                   	retq   

00000000004018e9 <addval_359>:
  4018e9:	8d 87 8d ca 08 d2    	lea    -0x2df73573(%rdi),%eax
  4018ef:	c3                   	retq   

00000000004018f0 <addval_488>:
  4018f0:	8d 87 89 c1 38 c9    	lea    -0x36c73e77(%rdi),%eax
  4018f6:	c3                   	retq   

00000000004018f7 <setval_142>:
  4018f7:	c7 07 8b c1 38 c0    	movl   $0xc038c18b,(%rdi)
  4018fd:	c3                   	retq   

00000000004018fe <setval_107>:
  4018fe:	c7 07 09 ca 90 c3    	movl   $0xc390ca09,(%rdi)
  401904:	c3                   	retq   

0000000000401905 <getval_461>:
  401905:	b8 8d d6 38 c0       	mov    $0xc038d68d,%eax
  40190a:	c3                   	retq   

000000000040190b <addval_392>:
  40190b:	8d 87 89 d6 08 c0    	lea    -0x3ff72977(%rdi),%eax
  401911:	c3                   	retq   

0000000000401912 <getval_241>:
  401912:	b8 ff 8b c1 c3       	mov    $0xc3c18bff,%eax
  401917:	c3                   	retq   

0000000000401918 <setval_253>:
  401918:	c7 07 a9 d6 38 c0    	movl   $0xc038d6a9,(%rdi)
  40191e:	c3                   	retq   

000000000040191f <getval_348>:
  40191f:	b8 89 d6 84 d2       	mov    $0xd284d689,%eax
  401924:	c3                   	retq   

0000000000401925 <setval_230>:
  401925:	c7 07 89 ca 28 d2    	movl   $0xd228ca89,(%rdi)
  40192b:	c3                   	retq   

000000000040192c <getval_401>:
  40192c:	b8 58 89 e0 90       	mov    $0x90e08958,%eax
  401931:	c3                   	retq   

0000000000401932 <getval_438>:
  401932:	b8 89 ca 78 db       	mov    $0xdb78ca89,%eax
  401937:	c3                   	retq   

0000000000401938 <setval_251>:
  401938:	c7 07 48 89 e0 c7    	movl   $0xc7e08948,(%rdi)
  40193e:	c3                   	retq   

000000000040193f <addval_111>:
  40193f:	8d 87 c8 89 e0 90    	lea    -0x6f1f7638(%rdi),%eax
  401945:	c3                   	retq   

0000000000401946 <addval_294>:
  401946:	8d 87 68 89 e0 90    	lea    -0x6f1f7698(%rdi),%eax
  40194c:	c3                   	retq   

000000000040194d <setval_465>:
  40194d:	c7 07 8d d6 08 c0    	movl   $0xc008d68d,(%rdi)
  401953:	c3                   	retq   

0000000000401954 <addval_180>:
  401954:	8d 87 48 89 e0 91    	lea    -0x6e1f76b8(%rdi),%eax
  40195a:	c3                   	retq   

000000000040195b <getval_386>:
  40195b:	b8 89 ca 90 c3       	mov    $0xc390ca89,%eax
  401960:	c3                   	retq   

0000000000401961 <setval_480>:
  401961:	c7 07 f4 48 89 e0    	movl   $0xe08948f4,(%rdi)
  401967:	c3                   	retq   

0000000000401968 <setval_426>:
  401968:	c7 07 81 ca 20 d2    	movl   $0xd220ca81,(%rdi)
  40196e:	c3                   	retq   

000000000040196f <addval_134>:
  40196f:	8d 87 88 c1 38 c9    	lea    -0x36c73e78(%rdi),%eax
  401975:	c3                   	retq   

0000000000401976 <setval_295>:
  401976:	c7 07 89 c1 90 c3    	movl   $0xc390c189,(%rdi)
  40197c:	c3                   	retq   

000000000040197d <setval_223>:
  40197d:	c7 07 89 d6 18 d2    	movl   $0xd218d689,(%rdi)
  401983:	c3                   	retq   

0000000000401984 <addval_167>:
  401984:	8d 87 48 89 e0 c7    	lea    -0x381f76b8(%rdi),%eax
  40198a:	c3                   	retq   

000000000040198b <end_farm>:
  40198b:	b8 01 00 00 00       	mov    $0x1,%eax
  401990:	c3                   	retq   

0000000000401991 <check_fail>:
  401991:	48 83 ec 08          	sub    $0x8,%rsp
  401995:	0f be 35 8c 47 20 00 	movsbl 0x20478c(%rip),%esi        # 606128 <target_prefix>
  40199c:	b9 20 55 60 00       	mov    $0x605520,%ecx
  4019a1:	8b 15 51 3b 20 00    	mov    0x203b51(%rip),%edx        # 6054f8 <check_level>
  4019a7:	bf c3 31 40 00       	mov    $0x4031c3,%edi
  4019ac:	b8 00 00 00 00       	mov    $0x0,%eax
  4019b1:	e8 ca f2 ff ff       	callq  400c80 <printf@plt>
  4019b6:	bf 01 00 00 00       	mov    $0x1,%edi
  4019bb:	e8 30 f4 ff ff       	callq  400df0 <exit@plt>

00000000004019c0 <Gets>:
  4019c0:	55                   	push   %rbp
  4019c1:	53                   	push   %rbx
  4019c2:	48 83 ec 08          	sub    $0x8,%rsp
  4019c6:	48 89 fd             	mov    %rdi,%rbp
  4019c9:	c7 05 51 47 20 00 00 	movl   $0x0,0x204751(%rip)        # 606124 <gets_cnt>
  4019d0:	00 00 00 
  4019d3:	48 89 fb             	mov    %rdi,%rbx
  4019d6:	eb 5f                	jmp    401a37 <Gets+0x77>
  4019d8:	48 83 c3 01          	add    $0x1,%rbx
  4019dc:	88 43 ff             	mov    %al,-0x1(%rbx)
  4019df:	8b 0d 3f 47 20 00    	mov    0x20473f(%rip),%ecx        # 606124 <gets_cnt>
  4019e5:	81 f9 ff 03 00 00    	cmp    $0x3ff,%ecx
  4019eb:	7f 4a                	jg     401a37 <Gets+0x77>
  4019ed:	0f b6 d0             	movzbl %al,%edx
  4019f0:	8d 34 49             	lea    (%rcx,%rcx,2),%esi
  4019f3:	48 63 c6             	movslq %esi,%rax
  4019f6:	89 d7                	mov    %edx,%edi
  4019f8:	c1 ef 04             	shr    $0x4,%edi
  4019fb:	48 63 ff             	movslq %edi,%rdi
  4019fe:	0f b6 bf c0 34 40 00 	movzbl 0x4034c0(%rdi),%edi
  401a05:	40 88 b8 20 55 60 00 	mov    %dil,0x605520(%rax)
  401a0c:	8d 46 01             	lea    0x1(%rsi),%eax
  401a0f:	48 98                	cltq   
  401a11:	83 e2 0f             	and    $0xf,%edx
  401a14:	0f b6 92 c0 34 40 00 	movzbl 0x4034c0(%rdx),%edx
  401a1b:	88 90 20 55 60 00    	mov    %dl,0x605520(%rax)
  401a21:	83 c6 02             	add    $0x2,%esi
  401a24:	48 63 f6             	movslq %esi,%rsi
  401a27:	c6 86 20 55 60 00 20 	movb   $0x20,0x605520(%rsi)
  401a2e:	83 c1 01             	add    $0x1,%ecx
  401a31:	89 0d ed 46 20 00    	mov    %ecx,0x2046ed(%rip)        # 606124 <gets_cnt>
  401a37:	48 8b 3d b2 3a 20 00 	mov    0x203ab2(%rip),%rdi        # 6054f0 <infile>
  401a3e:	e8 1d f3 ff ff       	callq  400d60 <_IO_getc@plt>
  401a43:	83 f8 ff             	cmp    $0xffffffff,%eax
  401a46:	74 05                	je     401a4d <Gets+0x8d>
  401a48:	83 f8 0a             	cmp    $0xa,%eax
  401a4b:	75 8b                	jne    4019d8 <Gets+0x18>
  401a4d:	c6 03 00             	movb   $0x0,(%rbx)
  401a50:	8b 05 ce 46 20 00    	mov    0x2046ce(%rip),%eax        # 606124 <gets_cnt>
  401a56:	8d 04 40             	lea    (%rax,%rax,2),%eax
  401a59:	48 98                	cltq   
  401a5b:	c6 80 20 55 60 00 00 	movb   $0x0,0x605520(%rax)
  401a62:	48 89 e8             	mov    %rbp,%rax
  401a65:	48 83 c4 08          	add    $0x8,%rsp
  401a69:	5b                   	pop    %rbx
  401a6a:	5d                   	pop    %rbp
  401a6b:	c3                   	retq   

0000000000401a6c <notify_server>:
  401a6c:	83 3d 95 3a 20 00 00 	cmpl   $0x0,0x203a95(%rip)        # 605508 <is_checker>
  401a73:	0f 85 cc 01 00 00    	jne    401c45 <notify_server+0x1d9>
  401a79:	48 81 ec 18 40 00 00 	sub    $0x4018,%rsp
  401a80:	8b 05 9e 46 20 00    	mov    0x20469e(%rip),%eax        # 606124 <gets_cnt>
  401a86:	83 c0 64             	add    $0x64,%eax
  401a89:	3d 00 20 00 00       	cmp    $0x2000,%eax
  401a8e:	7e 19                	jle    401aa9 <notify_server+0x3d>
  401a90:	bf f8 32 40 00       	mov    $0x4032f8,%edi
  401a95:	b8 00 00 00 00       	mov    $0x0,%eax
  401a9a:	e8 e1 f1 ff ff       	callq  400c80 <printf@plt>
  401a9f:	bf 01 00 00 00       	mov    $0x1,%edi
  401aa4:	e8 47 f3 ff ff       	callq  400df0 <exit@plt>
  401aa9:	44 0f be 0d 77 46 20 	movsbl 0x204677(%rip),%r9d        # 606128 <target_prefix>
  401ab0:	00 
  401ab1:	83 3d f0 39 20 00 00 	cmpl   $0x0,0x2039f0(%rip)        # 6054a8 <notify>
  401ab8:	b8 ff ff ff ff       	mov    $0xffffffff,%eax
  401abd:	0f 45 05 3c 3a 20 00 	cmovne 0x203a3c(%rip),%eax        # 605500 <authkey>
  401ac4:	41 89 c0             	mov    %eax,%r8d
  401ac7:	85 ff                	test   %edi,%edi
  401ac9:	0f 85 f0 00 00 00    	jne    401bbf <notify_server+0x153>
  401acf:	e9 a9 00 00 00       	jmpq   401b7d <notify_server+0x111>
  401ad4:	48 8d 74 24 10       	lea    0x10(%rsp),%rsi
  401ad9:	bf e3 31 40 00       	mov    $0x4031e3,%edi
  401ade:	b8 00 00 00 00       	mov    $0x0,%eax
  401ae3:	e8 98 f1 ff ff       	callq  400c80 <printf@plt>
  401ae8:	bf 01 00 00 00       	mov    $0x1,%edi
  401aed:	e8 fe f2 ff ff       	callq  400df0 <exit@plt>
  401af2:	bf 28 33 40 00       	mov    $0x403328,%edi
  401af7:	e8 54 f1 ff ff       	callq  400c50 <puts@plt>
  401afc:	bf ef 31 40 00       	mov    $0x4031ef,%edi
  401b01:	e8 4a f1 ff ff       	callq  400c50 <puts@plt>
  401b06:	e9 33 01 00 00       	jmpq   401c3e <notify_server+0x1d2>
  401b0b:	be d9 31 40 00       	mov    $0x4031d9,%esi
  401b10:	bf 60 33 40 00       	mov    $0x403360,%edi
  401b15:	b8 00 00 00 00       	mov    $0x0,%eax
  401b1a:	e8 61 f1 ff ff       	callq  400c80 <printf@plt>
  401b1f:	48 8b 35 3a 36 20 00 	mov    0x20363a(%rip),%rsi        # 605160 <user_id>
  401b26:	bf f9 31 40 00       	mov    $0x4031f9,%edi
  401b2b:	b8 00 00 00 00       	mov    $0x0,%eax
  401b30:	e8 4b f1 ff ff       	callq  400c80 <printf@plt>
  401b35:	48 8b 35 3c 36 20 00 	mov    0x20363c(%rip),%rsi        # 605178 <course>
  401b3c:	bf 06 32 40 00       	mov    $0x403206,%edi
  401b41:	b8 00 00 00 00       	mov    $0x0,%eax
  401b46:	e8 35 f1 ff ff       	callq  400c80 <printf@plt>
  401b4b:	48 8b 35 1e 36 20 00 	mov    0x20361e(%rip),%rsi        # 605170 <lab>
  401b52:	bf 12 32 40 00       	mov    $0x403212,%edi
  401b57:	b8 00 00 00 00       	mov    $0x0,%eax
  401b5c:	e8 1f f1 ff ff       	callq  400c80 <printf@plt>
  401b61:	48 8d b4 24 10 20 00 	lea    0x2010(%rsp),%rsi
  401b68:	00 
  401b69:	bf 1b 32 40 00       	mov    $0x40321b,%edi
  401b6e:	b8 00 00 00 00       	mov    $0x0,%eax
  401b73:	e8 08 f1 ff ff       	callq  400c80 <printf@plt>
  401b78:	e9 c1 00 00 00       	jmpq   401c3e <notify_server+0x1d2>
  401b7d:	48 c7 44 24 08 20 55 	movq   $0x605520,0x8(%rsp)
  401b84:	60 00 
  401b86:	89 34 24             	mov    %esi,(%rsp)
  401b89:	b9 de 31 40 00       	mov    $0x4031de,%ecx
  401b8e:	8b 15 d4 35 20 00    	mov    0x2035d4(%rip),%edx        # 605168 <target_id>
  401b94:	be 27 32 40 00       	mov    $0x403227,%esi
  401b99:	48 8d bc 24 10 20 00 	lea    0x2010(%rsp),%rdi
  401ba0:	00 
  401ba1:	b8 00 00 00 00       	mov    $0x0,%eax
  401ba6:	e8 35 f2 ff ff       	callq  400de0 <sprintf@plt>
  401bab:	be de 31 40 00       	mov    $0x4031de,%esi
  401bb0:	83 3d f1 38 20 00 00 	cmpl   $0x0,0x2038f1(%rip)        # 6054a8 <notify>
  401bb7:	0f 84 53 ff ff ff    	je     401b10 <notify_server+0xa4>
  401bbd:	eb 75                	jmp    401c34 <notify_server+0x1c8>
  401bbf:	48 c7 44 24 08 20 55 	movq   $0x605520,0x8(%rsp)
  401bc6:	60 00 
  401bc8:	89 34 24             	mov    %esi,(%rsp)
  401bcb:	b9 d9 31 40 00       	mov    $0x4031d9,%ecx
  401bd0:	8b 15 92 35 20 00    	mov    0x203592(%rip),%edx        # 605168 <target_id>
  401bd6:	be 27 32 40 00       	mov    $0x403227,%esi
  401bdb:	48 8d bc 24 10 20 00 	lea    0x2010(%rsp),%rdi
  401be2:	00 
  401be3:	b8 00 00 00 00       	mov    $0x0,%eax
  401be8:	e8 f3 f1 ff ff       	callq  400de0 <sprintf@plt>
  401bed:	83 3d b4 38 20 00 00 	cmpl   $0x0,0x2038b4(%rip)        # 6054a8 <notify>
  401bf4:	0f 84 11 ff ff ff    	je     401b0b <notify_server+0x9f>
  401bfa:	4c 8d 4c 24 10       	lea    0x10(%rsp),%r9
  401bff:	41 b8 00 00 00 00    	mov    $0x0,%r8d
  401c05:	48 8d 8c 24 10 20 00 	lea    0x2010(%rsp),%rcx
  401c0c:	00 
  401c0d:	48 8b 15 5c 35 20 00 	mov    0x20355c(%rip),%rdx        # 605170 <lab>
  401c14:	48 8b 35 5d 35 20 00 	mov    0x20355d(%rip),%rsi        # 605178 <course>
  401c1b:	48 8b 3d 3e 35 20 00 	mov    0x20353e(%rip),%rdi        # 605160 <user_id>
  401c22:	e8 0c 0f 00 00       	callq  402b33 <driver_post>
  401c27:	85 c0                	test   %eax,%eax
  401c29:	0f 89 c3 fe ff ff    	jns    401af2 <notify_server+0x86>
  401c2f:	e9 a0 fe ff ff       	jmpq   401ad4 <notify_server+0x68>
  401c34:	bf 43 32 40 00       	mov    $0x403243,%edi
  401c39:	e8 12 f0 ff ff       	callq  400c50 <puts@plt>
  401c3e:	48 81 c4 18 40 00 00 	add    $0x4018,%rsp
  401c45:	f3 c3                	repz retq 

0000000000401c47 <validate>:
  401c47:	55                   	push   %rbp
  401c48:	53                   	push   %rbx
  401c49:	48 83 ec 08          	sub    $0x8,%rsp
  401c4d:	89 fb                	mov    %edi,%ebx
  401c4f:	83 3d b2 38 20 00 00 	cmpl   $0x0,0x2038b2(%rip)        # 605508 <is_checker>
  401c56:	74 5e                	je     401cb6 <validate+0x6f>
  401c58:	8b 15 9e 38 20 00    	mov    0x20389e(%rip),%edx        # 6054fc <vlevel>
  401c5e:	39 fa                	cmp    %edi,%edx
  401c60:	74 14                	je     401c76 <validate+0x2f>
  401c62:	bf 4a 32 40 00       	mov    $0x40324a,%edi
  401c67:	e8 e4 ef ff ff       	callq  400c50 <puts@plt>
  401c6c:	b8 00 00 00 00       	mov    $0x0,%eax
  401c71:	e8 1b fd ff ff       	callq  401991 <check_fail>
  401c76:	8b 35 7c 38 20 00    	mov    0x20387c(%rip),%esi        # 6054f8 <check_level>
  401c7c:	39 f2                	cmp    %esi,%edx
  401c7e:	74 19                	je     401c99 <validate+0x52>
  401c80:	bf 88 33 40 00       	mov    $0x403388,%edi
  401c85:	b8 00 00 00 00       	mov    $0x0,%eax
  401c8a:	e8 f1 ef ff ff       	callq  400c80 <printf@plt>
  401c8f:	b8 00 00 00 00       	mov    $0x0,%eax
  401c94:	e8 f8 fc ff ff       	callq  401991 <check_fail>
  401c99:	0f be 35 88 44 20 00 	movsbl 0x204488(%rip),%esi        # 606128 <target_prefix>
  401ca0:	b9 20 55 60 00       	mov    $0x605520,%ecx
  401ca5:	bf 68 32 40 00       	mov    $0x403268,%edi
  401caa:	b8 00 00 00 00       	mov    $0x0,%eax
  401caf:	e8 cc ef ff ff       	callq  400c80 <printf@plt>
  401cb4:	eb 46                	jmp    401cfc <validate+0xb5>
  401cb6:	8b 2d 40 38 20 00    	mov    0x203840(%rip),%ebp        # 6054fc <vlevel>
  401cbc:	39 fd                	cmp    %edi,%ebp
  401cbe:	74 18                	je     401cd8 <validate+0x91>
  401cc0:	bf 4a 32 40 00       	mov    $0x40324a,%edi
  401cc5:	e8 86 ef ff ff       	callq  400c50 <puts@plt>
  401cca:	89 de                	mov    %ebx,%esi
  401ccc:	bf 00 00 00 00       	mov    $0x0,%edi
  401cd1:	e8 96 fd ff ff       	callq  401a6c <notify_server>
  401cd6:	eb 24                	jmp    401cfc <validate+0xb5>
  401cd8:	0f be 15 49 44 20 00 	movsbl 0x204449(%rip),%edx        # 606128 <target_prefix>
  401cdf:	89 ee                	mov    %ebp,%esi
  401ce1:	bf b0 33 40 00       	mov    $0x4033b0,%edi
  401ce6:	b8 00 00 00 00       	mov    $0x0,%eax
  401ceb:	e8 90 ef ff ff       	callq  400c80 <printf@plt>
  401cf0:	89 ee                	mov    %ebp,%esi
  401cf2:	bf 01 00 00 00       	mov    $0x1,%edi
  401cf7:	e8 70 fd ff ff       	callq  401a6c <notify_server>
  401cfc:	48 83 c4 08          	add    $0x8,%rsp
  401d00:	5b                   	pop    %rbx
  401d01:	5d                   	pop    %rbp
  401d02:	c3                   	retq   

0000000000401d03 <fail>:
  401d03:	48 83 ec 08          	sub    $0x8,%rsp
  401d07:	83 3d fa 37 20 00 00 	cmpl   $0x0,0x2037fa(%rip)        # 605508 <is_checker>
  401d0e:	74 0a                	je     401d1a <fail+0x17>
  401d10:	b8 00 00 00 00       	mov    $0x0,%eax
  401d15:	e8 77 fc ff ff       	callq  401991 <check_fail>
  401d1a:	89 fe                	mov    %edi,%esi
  401d1c:	bf 00 00 00 00       	mov    $0x0,%edi
  401d21:	e8 46 fd ff ff       	callq  401a6c <notify_server>
  401d26:	48 83 c4 08          	add    $0x8,%rsp
  401d2a:	c3                   	retq   

0000000000401d2b <bushandler>:
  401d2b:	48 83 ec 08          	sub    $0x8,%rsp
  401d2f:	83 3d d2 37 20 00 00 	cmpl   $0x0,0x2037d2(%rip)        # 605508 <is_checker>
  401d36:	74 14                	je     401d4c <bushandler+0x21>
  401d38:	bf 7d 32 40 00       	mov    $0x40327d,%edi
  401d3d:	e8 0e ef ff ff       	callq  400c50 <puts@plt>
  401d42:	b8 00 00 00 00       	mov    $0x0,%eax
  401d47:	e8 45 fc ff ff       	callq  401991 <check_fail>
  401d4c:	bf e8 33 40 00       	mov    $0x4033e8,%edi
  401d51:	e8 fa ee ff ff       	callq  400c50 <puts@plt>
  401d56:	bf 87 32 40 00       	mov    $0x403287,%edi
  401d5b:	e8 f0 ee ff ff       	callq  400c50 <puts@plt>
  401d60:	be 00 00 00 00       	mov    $0x0,%esi
  401d65:	bf 00 00 00 00       	mov    $0x0,%edi
  401d6a:	e8 fd fc ff ff       	callq  401a6c <notify_server>
  401d6f:	bf 01 00 00 00       	mov    $0x1,%edi
  401d74:	e8 77 f0 ff ff       	callq  400df0 <exit@plt>

0000000000401d79 <seghandler>:
  401d79:	48 83 ec 08          	sub    $0x8,%rsp
  401d7d:	83 3d 84 37 20 00 00 	cmpl   $0x0,0x203784(%rip)        # 605508 <is_checker>
  401d84:	74 14                	je     401d9a <seghandler+0x21>
  401d86:	bf 9d 32 40 00       	mov    $0x40329d,%edi
  401d8b:	e8 c0 ee ff ff       	callq  400c50 <puts@plt>
  401d90:	b8 00 00 00 00       	mov    $0x0,%eax
  401d95:	e8 f7 fb ff ff       	callq  401991 <check_fail>
  401d9a:	bf 08 34 40 00       	mov    $0x403408,%edi
  401d9f:	e8 ac ee ff ff       	callq  400c50 <puts@plt>
  401da4:	bf 87 32 40 00       	mov    $0x403287,%edi
  401da9:	e8 a2 ee ff ff       	callq  400c50 <puts@plt>
  401dae:	be 00 00 00 00       	mov    $0x0,%esi
  401db3:	bf 00 00 00 00       	mov    $0x0,%edi
  401db8:	e8 af fc ff ff       	callq  401a6c <notify_server>
  401dbd:	bf 01 00 00 00       	mov    $0x1,%edi
  401dc2:	e8 29 f0 ff ff       	callq  400df0 <exit@plt>

0000000000401dc7 <illegalhandler>:
  401dc7:	48 83 ec 08          	sub    $0x8,%rsp
  401dcb:	83 3d 36 37 20 00 00 	cmpl   $0x0,0x203736(%rip)        # 605508 <is_checker>
  401dd2:	74 14                	je     401de8 <illegalhandler+0x21>
  401dd4:	bf b0 32 40 00       	mov    $0x4032b0,%edi
  401dd9:	e8 72 ee ff ff       	callq  400c50 <puts@plt>
  401dde:	b8 00 00 00 00       	mov    $0x0,%eax
  401de3:	e8 a9 fb ff ff       	callq  401991 <check_fail>
  401de8:	bf 30 34 40 00       	mov    $0x403430,%edi
  401ded:	e8 5e ee ff ff       	callq  400c50 <puts@plt>
  401df2:	bf 87 32 40 00       	mov    $0x403287,%edi
  401df7:	e8 54 ee ff ff       	callq  400c50 <puts@plt>
  401dfc:	be 00 00 00 00       	mov    $0x0,%esi
  401e01:	bf 00 00 00 00       	mov    $0x0,%edi
  401e06:	e8 61 fc ff ff       	callq  401a6c <notify_server>
  401e0b:	bf 01 00 00 00       	mov    $0x1,%edi
  401e10:	e8 db ef ff ff       	callq  400df0 <exit@plt>

0000000000401e15 <sigalrmhandler>:
  401e15:	48 83 ec 08          	sub    $0x8,%rsp
  401e19:	83 3d e8 36 20 00 00 	cmpl   $0x0,0x2036e8(%rip)        # 605508 <is_checker>
  401e20:	74 14                	je     401e36 <sigalrmhandler+0x21>
  401e22:	bf c4 32 40 00       	mov    $0x4032c4,%edi
  401e27:	e8 24 ee ff ff       	callq  400c50 <puts@plt>
  401e2c:	b8 00 00 00 00       	mov    $0x0,%eax
  401e31:	e8 5b fb ff ff       	callq  401991 <check_fail>
  401e36:	be 05 00 00 00       	mov    $0x5,%esi
  401e3b:	bf 60 34 40 00       	mov    $0x403460,%edi
  401e40:	b8 00 00 00 00       	mov    $0x0,%eax
  401e45:	e8 36 ee ff ff       	callq  400c80 <printf@plt>
  401e4a:	be 00 00 00 00       	mov    $0x0,%esi
  401e4f:	bf 00 00 00 00       	mov    $0x0,%edi
  401e54:	e8 13 fc ff ff       	callq  401a6c <notify_server>
  401e59:	bf 01 00 00 00       	mov    $0x1,%edi
  401e5e:	e8 8d ef ff ff       	callq  400df0 <exit@plt>

0000000000401e63 <launch>:
  401e63:	55                   	push   %rbp
  401e64:	48 89 e5             	mov    %rsp,%rbp
  401e67:	48 89 fa             	mov    %rdi,%rdx
  401e6a:	48 8d 47 1e          	lea    0x1e(%rdi),%rax
  401e6e:	48 83 e0 f0          	and    $0xfffffffffffffff0,%rax
  401e72:	48 29 c4             	sub    %rax,%rsp
  401e75:	48 8d 7c 24 0f       	lea    0xf(%rsp),%rdi
  401e7a:	48 83 e7 f0          	and    $0xfffffffffffffff0,%rdi
  401e7e:	be f4 00 00 00       	mov    $0xf4,%esi
  401e83:	e8 08 ee ff ff       	callq  400c90 <memset@plt>
  401e88:	48 8b 05 31 36 20 00 	mov    0x203631(%rip),%rax        # 6054c0 <stdin@@GLIBC_2.2.5>
  401e8f:	48 39 05 5a 36 20 00 	cmp    %rax,0x20365a(%rip)        # 6054f0 <infile>
  401e96:	75 0f                	jne    401ea7 <launch+0x44>
  401e98:	bf cc 32 40 00       	mov    $0x4032cc,%edi
  401e9d:	b8 00 00 00 00       	mov    $0x0,%eax
  401ea2:	e8 d9 ed ff ff       	callq  400c80 <printf@plt>
  401ea7:	c7 05 4b 36 20 00 00 	movl   $0x0,0x20364b(%rip)        # 6054fc <vlevel>
  401eae:	00 00 00 
  401eb1:	b8 00 00 00 00       	mov    $0x0,%eax
  401eb6:	e8 8d f9 ff ff       	callq  401848 <test>
  401ebb:	83 3d 46 36 20 00 00 	cmpl   $0x0,0x203646(%rip)        # 605508 <is_checker>
  401ec2:	74 14                	je     401ed8 <launch+0x75>
  401ec4:	bf d9 32 40 00       	mov    $0x4032d9,%edi
  401ec9:	e8 82 ed ff ff       	callq  400c50 <puts@plt>
  401ece:	b8 00 00 00 00       	mov    $0x0,%eax
  401ed3:	e8 b9 fa ff ff       	callq  401991 <check_fail>
  401ed8:	bf e4 32 40 00       	mov    $0x4032e4,%edi
  401edd:	e8 6e ed ff ff       	callq  400c50 <puts@plt>
  401ee2:	c9                   	leaveq 
  401ee3:	c3                   	retq   

0000000000401ee4 <stable_launch>:
  401ee4:	48 83 ec 08          	sub    $0x8,%rsp
  401ee8:	48 89 3d f9 35 20 00 	mov    %rdi,0x2035f9(%rip)        # 6054e8 <global_offset>
  401eef:	41 b9 00 00 00 00    	mov    $0x0,%r9d
  401ef5:	41 b8 00 00 00 00    	mov    $0x0,%r8d
  401efb:	b9 32 01 00 00       	mov    $0x132,%ecx
  401f00:	ba 07 00 00 00       	mov    $0x7,%edx
  401f05:	be 00 00 10 00       	mov    $0x100000,%esi
  401f0a:	bf 00 60 58 55       	mov    $0x55586000,%edi
  401f0f:	e8 5c ed ff ff       	callq  400c70 <mmap@plt>
  401f14:	48 3d 00 60 58 55    	cmp    $0x55586000,%rax
  401f1a:	74 32                	je     401f4e <stable_launch+0x6a>
  401f1c:	be 00 00 10 00       	mov    $0x100000,%esi
  401f21:	48 89 c7             	mov    %rax,%rdi
  401f24:	e8 57 ee ff ff       	callq  400d80 <munmap@plt>
  401f29:	ba 00 60 58 55       	mov    $0x55586000,%edx
  401f2e:	be 98 34 40 00       	mov    $0x403498,%esi
  401f33:	48 8b 3d 96 35 20 00 	mov    0x203596(%rip),%rdi        # 6054d0 <stderr@@GLIBC_2.2.5>
  401f3a:	b8 00 00 00 00       	mov    $0x0,%eax
  401f3f:	e8 bc ed ff ff       	callq  400d00 <fprintf@plt>
  401f44:	bf 01 00 00 00       	mov    $0x1,%edi
  401f49:	e8 a2 ee ff ff       	callq  400df0 <exit@plt>
  401f4e:	48 c7 05 d7 41 20 00 	movq   $0x55685ff8,0x2041d7(%rip)        # 606130 <stack_top>
  401f55:	f8 5f 68 55 
  401f59:	ba f8 5f 68 55       	mov    $0x55685ff8,%edx
  401f5e:	48 89 e0             	mov    %rsp,%rax
  401f61:	48 89 d4             	mov    %rdx,%rsp
  401f64:	48 89 c2             	mov    %rax,%rdx
  401f67:	48 89 15 72 35 20 00 	mov    %rdx,0x203572(%rip)        # 6054e0 <global_save_stack>
  401f6e:	48 8b 3d 73 35 20 00 	mov    0x203573(%rip),%rdi        # 6054e8 <global_offset>
  401f75:	e8 e9 fe ff ff       	callq  401e63 <launch>
  401f7a:	48 8b 05 5f 35 20 00 	mov    0x20355f(%rip),%rax        # 6054e0 <global_save_stack>
  401f81:	48 89 c4             	mov    %rax,%rsp
  401f84:	be 00 00 10 00       	mov    $0x100000,%esi
  401f89:	bf 00 60 58 55       	mov    $0x55586000,%edi
  401f8e:	e8 ed ed ff ff       	callq  400d80 <munmap@plt>
  401f93:	48 83 c4 08          	add    $0x8,%rsp
  401f97:	c3                   	retq   
  401f98:	0f 1f 84 00 00 00 00 	nopl   0x0(%rax,%rax,1)
  401f9f:	00 

0000000000401fa0 <sigalrm_handler>:
  401fa0:	48 83 ec 08          	sub    $0x8,%rsp
  401fa4:	ba 00 00 00 00       	mov    $0x0,%edx
  401fa9:	be d0 34 40 00       	mov    $0x4034d0,%esi
  401fae:	48 8b 3d 1b 35 20 00 	mov    0x20351b(%rip),%rdi        # 6054d0 <stderr@@GLIBC_2.2.5>
  401fb5:	b8 00 00 00 00       	mov    $0x0,%eax
  401fba:	e8 41 ed ff ff       	callq  400d00 <fprintf@plt>
  401fbf:	bf 01 00 00 00       	mov    $0x1,%edi
  401fc4:	e8 27 ee ff ff       	callq  400df0 <exit@plt>

0000000000401fc9 <rio_readlineb>:
  401fc9:	41 57                	push   %r15
  401fcb:	41 56                	push   %r14
  401fcd:	41 55                	push   %r13
  401fcf:	41 54                	push   %r12
  401fd1:	55                   	push   %rbp
  401fd2:	53                   	push   %rbx
  401fd3:	48 83 ec 38          	sub    $0x38,%rsp
  401fd7:	49 89 f6             	mov    %rsi,%r14
  401fda:	48 89 54 24 18       	mov    %rdx,0x18(%rsp)
  401fdf:	48 83 fa 01          	cmp    $0x1,%rdx
  401fe3:	0f 86 bd 00 00 00    	jbe    4020a6 <rio_readlineb+0xdd>
  401fe9:	48 89 fb             	mov    %rdi,%rbx
  401fec:	41 bd 01 00 00 00    	mov    $0x1,%r13d
  401ff2:	4c 8d 67 10          	lea    0x10(%rdi),%r12
  401ff6:	eb 2e                	jmp    402026 <rio_readlineb+0x5d>
  401ff8:	ba 00 20 00 00       	mov    $0x2000,%edx
  401ffd:	4c 89 e6             	mov    %r12,%rsi
  402000:	8b 3b                	mov    (%rbx),%edi
  402002:	e8 b9 ec ff ff       	callq  400cc0 <read@plt>
  402007:	89 43 04             	mov    %eax,0x4(%rbx)
  40200a:	85 c0                	test   %eax,%eax
  40200c:	79 0f                	jns    40201d <rio_readlineb+0x54>
  40200e:	e8 fd eb ff ff       	callq  400c10 <__errno_location@plt>
  402013:	83 38 04             	cmpl   $0x4,(%rax)
  402016:	74 0e                	je     402026 <rio_readlineb+0x5d>
  402018:	e9 98 00 00 00       	jmpq   4020b5 <rio_readlineb+0xec>
  40201d:	85 c0                	test   %eax,%eax
  40201f:	90                   	nop
  402020:	74 6c                	je     40208e <rio_readlineb+0xc5>
  402022:	4c 89 63 08          	mov    %r12,0x8(%rbx)
  402026:	8b 6b 04             	mov    0x4(%rbx),%ebp
  402029:	85 ed                	test   %ebp,%ebp
  40202b:	7e cb                	jle    401ff8 <rio_readlineb+0x2f>
  40202d:	85 ed                	test   %ebp,%ebp
  40202f:	41 0f 95 c7          	setne  %r15b
  402033:	41 0f b6 c7          	movzbl %r15b,%eax
  402037:	89 44 24 0c          	mov    %eax,0xc(%rsp)
  40203b:	45 0f b6 ff          	movzbl %r15b,%r15d
  40203f:	48 8b 4b 08          	mov    0x8(%rbx),%rcx
  402043:	4c 89 fa             	mov    %r15,%rdx
  402046:	48 89 4c 24 10       	mov    %rcx,0x10(%rsp)
  40204b:	48 89 ce             	mov    %rcx,%rsi
  40204e:	48 8d 7c 24 2f       	lea    0x2f(%rsp),%rdi
  402053:	e8 d8 ec ff ff       	callq  400d30 <memcpy@plt>
  402058:	4c 03 7c 24 10       	add    0x10(%rsp),%r15
  40205d:	4c 89 7b 08          	mov    %r15,0x8(%rbx)
  402061:	8b 44 24 0c          	mov    0xc(%rsp),%eax
  402065:	29 c5                	sub    %eax,%ebp
  402067:	89 6b 04             	mov    %ebp,0x4(%rbx)
  40206a:	83 f8 01             	cmp    $0x1,%eax
  40206d:	75 13                	jne    402082 <rio_readlineb+0xb9>
  40206f:	49 83 c6 01          	add    $0x1,%r14
  402073:	0f b6 44 24 2f       	movzbl 0x2f(%rsp),%eax
  402078:	41 88 46 ff          	mov    %al,-0x1(%r14)
  40207c:	3c 0a                	cmp    $0xa,%al
  40207e:	75 19                	jne    402099 <rio_readlineb+0xd0>
  402080:	eb 2a                	jmp    4020ac <rio_readlineb+0xe3>
  402082:	83 7c 24 0c 00       	cmpl   $0x0,0xc(%rsp)
  402087:	75 35                	jne    4020be <rio_readlineb+0xf5>
  402089:	4c 89 e8             	mov    %r13,%rax
  40208c:	eb 03                	jmp    402091 <rio_readlineb+0xc8>
  40208e:	4c 89 e8             	mov    %r13,%rax
  402091:	48 83 f8 01          	cmp    $0x1,%rax
  402095:	75 15                	jne    4020ac <rio_readlineb+0xe3>
  402097:	eb 2e                	jmp    4020c7 <rio_readlineb+0xfe>
  402099:	49 83 c5 01          	add    $0x1,%r13
  40209d:	4c 3b 6c 24 18       	cmp    0x18(%rsp),%r13
  4020a2:	74 08                	je     4020ac <rio_readlineb+0xe3>
  4020a4:	eb 80                	jmp    402026 <rio_readlineb+0x5d>
  4020a6:	41 bd 01 00 00 00    	mov    $0x1,%r13d
  4020ac:	41 c6 06 00          	movb   $0x0,(%r14)
  4020b0:	4c 89 e8             	mov    %r13,%rax
  4020b3:	eb 17                	jmp    4020cc <rio_readlineb+0x103>
  4020b5:	48 c7 c0 ff ff ff ff 	mov    $0xffffffffffffffff,%rax
  4020bc:	eb 0e                	jmp    4020cc <rio_readlineb+0x103>
  4020be:	48 c7 c0 ff ff ff ff 	mov    $0xffffffffffffffff,%rax
  4020c5:	eb 05                	jmp    4020cc <rio_readlineb+0x103>
  4020c7:	b8 00 00 00 00       	mov    $0x0,%eax
  4020cc:	48 83 c4 38          	add    $0x38,%rsp
  4020d0:	5b                   	pop    %rbx
  4020d1:	5d                   	pop    %rbp
  4020d2:	41 5c                	pop    %r12
  4020d4:	41 5d                	pop    %r13
  4020d6:	41 5e                	pop    %r14
  4020d8:	41 5f                	pop    %r15
  4020da:	c3                   	retq   

00000000004020db <submitr>:
  4020db:	41 57                	push   %r15
  4020dd:	41 56                	push   %r14
  4020df:	41 55                	push   %r13
  4020e1:	41 54                	push   %r12
  4020e3:	55                   	push   %rbp
  4020e4:	53                   	push   %rbx
  4020e5:	48 81 ec 58 a0 00 00 	sub    $0xa058,%rsp
  4020ec:	49 89 ff             	mov    %rdi,%r15
  4020ef:	89 f5                	mov    %esi,%ebp
  4020f1:	48 89 14 24          	mov    %rdx,(%rsp)
  4020f5:	48 89 4c 24 08       	mov    %rcx,0x8(%rsp)
  4020fa:	4d 89 c5             	mov    %r8,%r13
  4020fd:	4c 89 cb             	mov    %r9,%rbx
  402100:	4c 8b b4 24 90 a0 00 	mov    0xa090(%rsp),%r14
  402107:	00 
  402108:	c7 84 24 2c 20 00 00 	movl   $0x0,0x202c(%rsp)
  40210f:	00 00 00 00 
  402113:	ba 00 00 00 00       	mov    $0x0,%edx
  402118:	be 01 00 00 00       	mov    $0x1,%esi
  40211d:	bf 02 00 00 00       	mov    $0x2,%edi
  402122:	e8 e9 ec ff ff       	callq  400e10 <socket@plt>
  402127:	41 89 c4             	mov    %eax,%r12d
  40212a:	85 c0                	test   %eax,%eax
  40212c:	79 50                	jns    40217e <submitr+0xa3>
  40212e:	48 b8 45 72 72 6f 72 	movabs $0x43203a726f727245,%rax
  402135:	3a 20 43 
  402138:	49 89 06             	mov    %rax,(%r14)
  40213b:	48 b8 6c 69 65 6e 74 	movabs $0x6e7520746e65696c,%rax
  402142:	20 75 6e 
  402145:	49 89 46 08          	mov    %rax,0x8(%r14)
  402149:	48 b8 61 62 6c 65 20 	movabs $0x206f7420656c6261,%rax
  402150:	74 6f 20 
  402153:	49 89 46 10          	mov    %rax,0x10(%r14)
  402157:	48 b8 63 72 65 61 74 	movabs $0x7320657461657263,%rax
  40215e:	65 20 73 
  402161:	49 89 46 18          	mov    %rax,0x18(%r14)
  402165:	41 c7 46 20 6f 63 6b 	movl   $0x656b636f,0x20(%r14)
  40216c:	65 
  40216d:	66 41 c7 46 24 74 00 	movw   $0x74,0x24(%r14)
  402174:	b8 ff ff ff ff       	mov    $0xffffffff,%eax
  402179:	e9 b3 07 00 00       	jmpq   402931 <submitr+0x856>
  40217e:	4c 89 ff             	mov    %r15,%rdi
  402181:	e8 6a eb ff ff       	callq  400cf0 <gethostbyname@plt>
  402186:	48 85 c0             	test   %rax,%rax
  402189:	75 6b                	jne    4021f6 <submitr+0x11b>
  40218b:	48 b8 45 72 72 6f 72 	movabs $0x44203a726f727245,%rax
  402192:	3a 20 44 
  402195:	49 89 06             	mov    %rax,(%r14)
  402198:	48 b8 4e 53 20 69 73 	movabs $0x6e7520736920534e,%rax
  40219f:	20 75 6e 
  4021a2:	49 89 46 08          	mov    %rax,0x8(%r14)
  4021a6:	48 b8 61 62 6c 65 20 	movabs $0x206f7420656c6261,%rax
  4021ad:	74 6f 20 
  4021b0:	49 89 46 10          	mov    %rax,0x10(%r14)
  4021b4:	48 b8 72 65 73 6f 6c 	movabs $0x2065766c6f736572,%rax
  4021bb:	76 65 20 
  4021be:	49 89 46 18          	mov    %rax,0x18(%r14)
  4021c2:	48 b8 73 65 72 76 65 	movabs $0x6120726576726573,%rax
  4021c9:	72 20 61 
  4021cc:	49 89 46 20          	mov    %rax,0x20(%r14)
  4021d0:	41 c7 46 28 64 64 72 	movl   $0x65726464,0x28(%r14)
  4021d7:	65 
  4021d8:	66 41 c7 46 2c 73 73 	movw   $0x7373,0x2c(%r14)
  4021df:	41 c6 46 2e 00       	movb   $0x0,0x2e(%r14)
  4021e4:	44 89 e7             	mov    %r12d,%edi
  4021e7:	e8 c4 ea ff ff       	callq  400cb0 <close@plt>
  4021ec:	b8 ff ff ff ff       	mov    $0xffffffff,%eax
  4021f1:	e9 3b 07 00 00       	jmpq   402931 <submitr+0x856>
  4021f6:	48 c7 84 24 40 a0 00 	movq   $0x0,0xa040(%rsp)
  4021fd:	00 00 00 00 00 
  402202:	48 c7 84 24 48 a0 00 	movq   $0x0,0xa048(%rsp)
  402209:	00 00 00 00 00 
  40220e:	66 c7 84 24 40 a0 00 	movw   $0x2,0xa040(%rsp)
  402215:	00 02 00 
  402218:	48 63 50 14          	movslq 0x14(%rax),%rdx
  40221c:	48 8d b4 24 44 a0 00 	lea    0xa044(%rsp),%rsi
  402223:	00 
  402224:	48 8b 40 18          	mov    0x18(%rax),%rax
  402228:	48 8b 38             	mov    (%rax),%rdi
  40222b:	e8 60 eb ff ff       	callq  400d90 <bcopy@plt>
  402230:	66 c1 cd 08          	ror    $0x8,%bp
  402234:	66 89 ac 24 42 a0 00 	mov    %bp,0xa042(%rsp)
  40223b:	00 
  40223c:	ba 10 00 00 00       	mov    $0x10,%edx
  402241:	48 8d b4 24 40 a0 00 	lea    0xa040(%rsp),%rsi
  402248:	00 
  402249:	44 89 e7             	mov    %r12d,%edi
  40224c:	e8 af eb ff ff       	callq  400e00 <connect@plt>
  402251:	85 c0                	test   %eax,%eax
  402253:	79 5d                	jns    4022b2 <submitr+0x1d7>
  402255:	48 b8 45 72 72 6f 72 	movabs $0x55203a726f727245,%rax
  40225c:	3a 20 55 
  40225f:	49 89 06             	mov    %rax,(%r14)
  402262:	48 b8 6e 61 62 6c 65 	movabs $0x6f7420656c62616e,%rax
  402269:	20 74 6f 
  40226c:	49 89 46 08          	mov    %rax,0x8(%r14)
  402270:	48 b8 20 63 6f 6e 6e 	movabs $0x7463656e6e6f6320,%rax
  402277:	65 63 74 
  40227a:	49 89 46 10          	mov    %rax,0x10(%r14)
  40227e:	48 b8 20 74 6f 20 74 	movabs $0x20656874206f7420,%rax
  402285:	68 65 20 
  402288:	49 89 46 18          	mov    %rax,0x18(%r14)
  40228c:	41 c7 46 20 73 65 72 	movl   $0x76726573,0x20(%r14)
  402293:	76 
  402294:	66 41 c7 46 24 65 72 	movw   $0x7265,0x24(%r14)
  40229b:	41 c6 46 26 00       	movb   $0x0,0x26(%r14)
  4022a0:	44 89 e7             	mov    %r12d,%edi
  4022a3:	e8 08 ea ff ff       	callq  400cb0 <close@plt>
  4022a8:	b8 ff ff ff ff       	mov    $0xffffffff,%eax
  4022ad:	e9 7f 06 00 00       	jmpq   402931 <submitr+0x856>
  4022b2:	48 c7 c2 ff ff ff ff 	mov    $0xffffffffffffffff,%rdx
  4022b9:	48 89 df             	mov    %rbx,%rdi
  4022bc:	b8 00 00 00 00       	mov    $0x0,%eax
  4022c1:	48 89 d1             	mov    %rdx,%rcx
  4022c4:	f2 ae                	repnz scas %es:(%rdi),%al
  4022c6:	48 f7 d1             	not    %rcx
  4022c9:	48 89 ce             	mov    %rcx,%rsi
  4022cc:	48 8b 3c 24          	mov    (%rsp),%rdi
  4022d0:	48 89 d1             	mov    %rdx,%rcx
  4022d3:	f2 ae                	repnz scas %es:(%rdi),%al
  4022d5:	49 89 c8             	mov    %rcx,%r8
  4022d8:	48 8b 7c 24 08       	mov    0x8(%rsp),%rdi
  4022dd:	48 89 d1             	mov    %rdx,%rcx
  4022e0:	f2 ae                	repnz scas %es:(%rdi),%al
  4022e2:	48 f7 d1             	not    %rcx
  4022e5:	49 89 c9             	mov    %rcx,%r9
  4022e8:	4c 89 ef             	mov    %r13,%rdi
  4022eb:	48 89 d1             	mov    %rdx,%rcx
  4022ee:	f2 ae                	repnz scas %es:(%rdi),%al
  4022f0:	4d 29 c1             	sub    %r8,%r9
  4022f3:	49 29 c9             	sub    %rcx,%r9
  4022f6:	48 8d 44 76 fd       	lea    -0x3(%rsi,%rsi,2),%rax
  4022fb:	49 8d 44 01 7b       	lea    0x7b(%r9,%rax,1),%rax
  402300:	48 3d 00 20 00 00    	cmp    $0x2000,%rax
  402306:	76 73                	jbe    40237b <submitr+0x2a0>
  402308:	48 b8 45 72 72 6f 72 	movabs $0x52203a726f727245,%rax
  40230f:	3a 20 52 
  402312:	49 89 06             	mov    %rax,(%r14)
  402315:	48 b8 65 73 75 6c 74 	movabs $0x747320746c757365,%rax
  40231c:	20 73 74 
  40231f:	49 89 46 08          	mov    %rax,0x8(%r14)
  402323:	48 b8 72 69 6e 67 20 	movabs $0x6f6f7420676e6972,%rax
  40232a:	74 6f 6f 
  40232d:	49 89 46 10          	mov    %rax,0x10(%r14)
  402331:	48 b8 20 6c 61 72 67 	movabs $0x202e656772616c20,%rax
  402338:	65 2e 20 
  40233b:	49 89 46 18          	mov    %rax,0x18(%r14)
  40233f:	48 b8 49 6e 63 72 65 	movabs $0x6573616572636e49,%rax
  402346:	61 73 65 
  402349:	49 89 46 20          	mov    %rax,0x20(%r14)
  40234d:	48 b8 20 53 55 42 4d 	movabs $0x5254494d42555320,%rax
  402354:	49 54 52 
  402357:	49 89 46 28          	mov    %rax,0x28(%r14)
  40235b:	48 b8 5f 4d 41 58 42 	movabs $0x46554258414d5f,%rax
  402362:	55 46 00 
  402365:	49 89 46 30          	mov    %rax,0x30(%r14)
  402369:	44 89 e7             	mov    %r12d,%edi
  40236c:	e8 3f e9 ff ff       	callq  400cb0 <close@plt>
  402371:	b8 ff ff ff ff       	mov    $0xffffffff,%eax
  402376:	e9 b6 05 00 00       	jmpq   402931 <submitr+0x856>
  40237b:	48 8d 94 24 30 40 00 	lea    0x4030(%rsp),%rdx
  402382:	00 
  402383:	b9 00 04 00 00       	mov    $0x400,%ecx
  402388:	b8 00 00 00 00       	mov    $0x0,%eax
  40238d:	48 89 d7             	mov    %rdx,%rdi
  402390:	f3 48 ab             	rep stos %rax,%es:(%rdi)
  402393:	48 89 df             	mov    %rbx,%rdi
  402396:	48 c7 c1 ff ff ff ff 	mov    $0xffffffffffffffff,%rcx
  40239d:	f2 ae                	repnz scas %es:(%rdi),%al
  40239f:	48 f7 d1             	not    %rcx
  4023a2:	48 83 e9 01          	sub    $0x1,%rcx
  4023a6:	85 c9                	test   %ecx,%ecx
  4023a8:	0f 84 50 04 00 00    	je     4027fe <submitr+0x723>
  4023ae:	8d 41 ff             	lea    -0x1(%rcx),%eax
  4023b1:	4c 8d 6c 03 01       	lea    0x1(%rbx,%rax,1),%r13
  4023b6:	48 89 d5             	mov    %rdx,%rbp
  4023b9:	0f b6 13             	movzbl (%rbx),%edx
  4023bc:	80 fa 2a             	cmp    $0x2a,%dl
  4023bf:	74 1f                	je     4023e0 <submitr+0x305>
  4023c1:	8d 42 d3             	lea    -0x2d(%rdx),%eax
  4023c4:	3c 01                	cmp    $0x1,%al
  4023c6:	76 18                	jbe    4023e0 <submitr+0x305>
  4023c8:	80 fa 5f             	cmp    $0x5f,%dl
  4023cb:	74 13                	je     4023e0 <submitr+0x305>
  4023cd:	8d 42 d0             	lea    -0x30(%rdx),%eax
  4023d0:	3c 09                	cmp    $0x9,%al
  4023d2:	76 0c                	jbe    4023e0 <submitr+0x305>
  4023d4:	89 d0                	mov    %edx,%eax
  4023d6:	83 e0 df             	and    $0xffffffdf,%eax
  4023d9:	83 e8 41             	sub    $0x41,%eax
  4023dc:	3c 19                	cmp    $0x19,%al
  4023de:	77 09                	ja     4023e9 <submitr+0x30e>
  4023e0:	48 8d 45 01          	lea    0x1(%rbp),%rax
  4023e4:	88 55 00             	mov    %dl,0x0(%rbp)
  4023e7:	eb 52                	jmp    40243b <submitr+0x360>
  4023e9:	80 fa 20             	cmp    $0x20,%dl
  4023ec:	75 0a                	jne    4023f8 <submitr+0x31d>
  4023ee:	48 8d 45 01          	lea    0x1(%rbp),%rax
  4023f2:	c6 45 00 2b          	movb   $0x2b,0x0(%rbp)
  4023f6:	eb 43                	jmp    40243b <submitr+0x360>
  4023f8:	8d 42 e0             	lea    -0x20(%rdx),%eax
  4023fb:	3c 5f                	cmp    $0x5f,%al
  4023fd:	76 09                	jbe    402408 <submitr+0x32d>
  4023ff:	80 fa 09             	cmp    $0x9,%dl
  402402:	0f 85 57 04 00 00    	jne    40285f <submitr+0x784>
  402408:	0f b6 d2             	movzbl %dl,%edx
  40240b:	be 68 35 40 00       	mov    $0x403568,%esi
  402410:	48 8d 7c 24 10       	lea    0x10(%rsp),%rdi
  402415:	b8 00 00 00 00       	mov    $0x0,%eax
  40241a:	e8 c1 e9 ff ff       	callq  400de0 <sprintf@plt>
  40241f:	0f b6 44 24 10       	movzbl 0x10(%rsp),%eax
  402424:	88 45 00             	mov    %al,0x0(%rbp)
  402427:	0f b6 44 24 11       	movzbl 0x11(%rsp),%eax
  40242c:	88 45 01             	mov    %al,0x1(%rbp)
  40242f:	48 8d 45 03          	lea    0x3(%rbp),%rax
  402433:	0f b6 54 24 12       	movzbl 0x12(%rsp),%edx
  402438:	88 55 02             	mov    %dl,0x2(%rbp)
  40243b:	48 83 c3 01          	add    $0x1,%rbx
  40243f:	4c 39 eb             	cmp    %r13,%rbx
  402442:	0f 84 b6 03 00 00    	je     4027fe <submitr+0x723>
  402448:	48 89 c5             	mov    %rax,%rbp
  40244b:	e9 69 ff ff ff       	jmpq   4023b9 <submitr+0x2de>
  402450:	48 89 da             	mov    %rbx,%rdx
  402453:	48 89 ee             	mov    %rbp,%rsi
  402456:	44 89 e7             	mov    %r12d,%edi
  402459:	e8 02 e8 ff ff       	callq  400c60 <write@plt>
  40245e:	48 85 c0             	test   %rax,%rax
  402461:	7f 0f                	jg     402472 <submitr+0x397>
  402463:	e8 a8 e7 ff ff       	callq  400c10 <__errno_location@plt>
  402468:	83 38 04             	cmpl   $0x4,(%rax)
  40246b:	75 12                	jne    40247f <submitr+0x3a4>
  40246d:	b8 00 00 00 00       	mov    $0x0,%eax
  402472:	48 01 c5             	add    %rax,%rbp
  402475:	48 29 c3             	sub    %rax,%rbx
  402478:	75 d6                	jne    402450 <submitr+0x375>
  40247a:	4d 85 ed             	test   %r13,%r13
  40247d:	79 71                	jns    4024f0 <submitr+0x415>
  40247f:	48 b8 45 72 72 6f 72 	movabs $0x43203a726f727245,%rax
  402486:	3a 20 43 
  402489:	49 89 06             	mov    %rax,(%r14)
  40248c:	48 b8 6c 69 65 6e 74 	movabs $0x6e7520746e65696c,%rax
  402493:	20 75 6e 
  402496:	49 89 46 08          	mov    %rax,0x8(%r14)
  40249a:	48 b8 61 62 6c 65 20 	movabs $0x206f7420656c6261,%rax
  4024a1:	74 6f 20 
  4024a4:	49 89 46 10          	mov    %rax,0x10(%r14)
  4024a8:	48 b8 77 72 69 74 65 	movabs $0x6f74206574697277,%rax
  4024af:	20 74 6f 
  4024b2:	49 89 46 18          	mov    %rax,0x18(%r14)
  4024b6:	48 b8 20 74 68 65 20 	movabs $0x7365722065687420,%rax
  4024bd:	72 65 73 
  4024c0:	49 89 46 20          	mov    %rax,0x20(%r14)
  4024c4:	48 b8 75 6c 74 20 73 	movabs $0x7672657320746c75,%rax
  4024cb:	65 72 76 
  4024ce:	49 89 46 28          	mov    %rax,0x28(%r14)
  4024d2:	66 41 c7 46 30 65 72 	movw   $0x7265,0x30(%r14)
  4024d9:	41 c6 46 32 00       	movb   $0x0,0x32(%r14)
  4024de:	44 89 e7             	mov    %r12d,%edi
  4024e1:	e8 ca e7 ff ff       	callq  400cb0 <close@plt>
  4024e6:	b8 ff ff ff ff       	mov    $0xffffffff,%eax
  4024eb:	e9 41 04 00 00       	jmpq   402931 <submitr+0x856>
  4024f0:	44 89 a4 24 30 80 00 	mov    %r12d,0x8030(%rsp)
  4024f7:	00 
  4024f8:	c7 84 24 34 80 00 00 	movl   $0x0,0x8034(%rsp)
  4024ff:	00 00 00 00 
  402503:	48 8d 84 24 40 80 00 	lea    0x8040(%rsp),%rax
  40250a:	00 
  40250b:	48 89 84 24 38 80 00 	mov    %rax,0x8038(%rsp)
  402512:	00 
  402513:	ba 00 20 00 00       	mov    $0x2000,%edx
  402518:	48 8d b4 24 30 60 00 	lea    0x6030(%rsp),%rsi
  40251f:	00 
  402520:	48 8d bc 24 30 80 00 	lea    0x8030(%rsp),%rdi
  402527:	00 
  402528:	e8 9c fa ff ff       	callq  401fc9 <rio_readlineb>
  40252d:	48 85 c0             	test   %rax,%rax
  402530:	0f 8f 80 00 00 00    	jg     4025b6 <submitr+0x4db>
  402536:	48 b8 45 72 72 6f 72 	movabs $0x43203a726f727245,%rax
  40253d:	3a 20 43 
  402540:	49 89 06             	mov    %rax,(%r14)
  402543:	48 b8 6c 69 65 6e 74 	movabs $0x6e7520746e65696c,%rax
  40254a:	20 75 6e 
  40254d:	49 89 46 08          	mov    %rax,0x8(%r14)
  402551:	48 b8 61 62 6c 65 20 	movabs $0x206f7420656c6261,%rax
  402558:	74 6f 20 
  40255b:	49 89 46 10          	mov    %rax,0x10(%r14)
  40255f:	48 b8 72 65 61 64 20 	movabs $0x7269662064616572,%rax
  402566:	66 69 72 
  402569:	49 89 46 18          	mov    %rax,0x18(%r14)
  40256d:	48 b8 73 74 20 68 65 	movabs $0x6564616568207473,%rax
  402574:	61 64 65 
  402577:	49 89 46 20          	mov    %rax,0x20(%r14)
  40257b:	48 b8 72 20 66 72 6f 	movabs $0x72206d6f72662072,%rax
  402582:	6d 20 72 
  402585:	49 89 46 28          	mov    %rax,0x28(%r14)
  402589:	48 b8 65 73 75 6c 74 	movabs $0x657320746c757365,%rax
  402590:	20 73 65 
  402593:	49 89 46 30          	mov    %rax,0x30(%r14)
  402597:	41 c7 46 38 72 76 65 	movl   $0x72657672,0x38(%r14)
  40259e:	72 
  40259f:	41 c6 46 3c 00       	movb   $0x0,0x3c(%r14)
  4025a4:	44 89 e7             	mov    %r12d,%edi
  4025a7:	e8 04 e7 ff ff       	callq  400cb0 <close@plt>
  4025ac:	b8 ff ff ff ff       	mov    $0xffffffff,%eax
  4025b1:	e9 7b 03 00 00       	jmpq   402931 <submitr+0x856>
  4025b6:	4c 8d 44 24 20       	lea    0x20(%rsp),%r8
  4025bb:	48 8d 8c 24 2c 20 00 	lea    0x202c(%rsp),%rcx
  4025c2:	00 
  4025c3:	48 8d 94 24 30 20 00 	lea    0x2030(%rsp),%rdx
  4025ca:	00 
  4025cb:	be 6f 35 40 00       	mov    $0x40356f,%esi
  4025d0:	48 8d bc 24 30 60 00 	lea    0x6030(%rsp),%rdi
  4025d7:	00 
  4025d8:	b8 00 00 00 00       	mov    $0x0,%eax
  4025dd:	e8 8e e7 ff ff       	callq  400d70 <__isoc99_sscanf@plt>
  4025e2:	e9 9a 00 00 00       	jmpq   402681 <submitr+0x5a6>
  4025e7:	ba 00 20 00 00       	mov    $0x2000,%edx
  4025ec:	48 8d b4 24 30 60 00 	lea    0x6030(%rsp),%rsi
  4025f3:	00 
  4025f4:	48 8d bc 24 30 80 00 	lea    0x8030(%rsp),%rdi
  4025fb:	00 
  4025fc:	e8 c8 f9 ff ff       	callq  401fc9 <rio_readlineb>
  402601:	48 85 c0             	test   %rax,%rax
  402604:	7f 7b                	jg     402681 <submitr+0x5a6>
  402606:	48 b8 45 72 72 6f 72 	movabs $0x43203a726f727245,%rax
  40260d:	3a 20 43 
  402610:	49 89 06             	mov    %rax,(%r14)
  402613:	48 b8 6c 69 65 6e 74 	movabs $0x6e7520746e65696c,%rax
  40261a:	20 75 6e 
  40261d:	49 89 46 08          	mov    %rax,0x8(%r14)
  402621:	48 b8 61 62 6c 65 20 	movabs $0x206f7420656c6261,%rax
  402628:	74 6f 20 
  40262b:	49 89 46 10          	mov    %rax,0x10(%r14)
  40262f:	48 b8 72 65 61 64 20 	movabs $0x6165682064616572,%rax
  402636:	68 65 61 
  402639:	49 89 46 18          	mov    %rax,0x18(%r14)
  40263d:	48 b8 64 65 72 73 20 	movabs $0x6f72662073726564,%rax
  402644:	66 72 6f 
  402647:	49 89 46 20          	mov    %rax,0x20(%r14)
  40264b:	48 b8 6d 20 74 68 65 	movabs $0x657220656874206d,%rax
  402652:	20 72 65 
  402655:	49 89 46 28          	mov    %rax,0x28(%r14)
  402659:	48 b8 73 75 6c 74 20 	movabs $0x72657320746c7573,%rax
  402660:	73 65 72 
  402663:	49 89 46 30          	mov    %rax,0x30(%r14)
  402667:	41 c7 46 38 76 65 72 	movl   $0x726576,0x38(%r14)
  40266e:	00 
  40266f:	44 89 e7             	mov    %r12d,%edi
  402672:	e8 39 e6 ff ff       	callq  400cb0 <close@plt>
  402677:	b8 ff ff ff ff       	mov    $0xffffffff,%eax
  40267c:	e9 b0 02 00 00       	jmpq   402931 <submitr+0x856>
  402681:	80 bc 24 30 60 00 00 	cmpb   $0xd,0x6030(%rsp)
  402688:	0d 
  402689:	0f 85 58 ff ff ff    	jne    4025e7 <submitr+0x50c>
  40268f:	80 bc 24 31 60 00 00 	cmpb   $0xa,0x6031(%rsp)
  402696:	0a 
  402697:	0f 85 4a ff ff ff    	jne    4025e7 <submitr+0x50c>
  40269d:	80 bc 24 32 60 00 00 	cmpb   $0x0,0x6032(%rsp)
  4026a4:	00 
  4026a5:	0f 85 3c ff ff ff    	jne    4025e7 <submitr+0x50c>
  4026ab:	ba 00 20 00 00       	mov    $0x2000,%edx
  4026b0:	48 8d b4 24 30 60 00 	lea    0x6030(%rsp),%rsi
  4026b7:	00 
  4026b8:	48 8d bc 24 30 80 00 	lea    0x8030(%rsp),%rdi
  4026bf:	00 
  4026c0:	e8 04 f9 ff ff       	callq  401fc9 <rio_readlineb>
  4026c5:	48 85 c0             	test   %rax,%rax
  4026c8:	0f 8f 87 00 00 00    	jg     402755 <submitr+0x67a>
  4026ce:	48 b8 45 72 72 6f 72 	movabs $0x43203a726f727245,%rax
  4026d5:	3a 20 43 
  4026d8:	49 89 06             	mov    %rax,(%r14)
  4026db:	48 b8 6c 69 65 6e 74 	movabs $0x6e7520746e65696c,%rax
  4026e2:	20 75 6e 
  4026e5:	49 89 46 08          	mov    %rax,0x8(%r14)
  4026e9:	48 b8 61 62 6c 65 20 	movabs $0x206f7420656c6261,%rax
  4026f0:	74 6f 20 
  4026f3:	49 89 46 10          	mov    %rax,0x10(%r14)
  4026f7:	48 b8 72 65 61 64 20 	movabs $0x6174732064616572,%rax
  4026fe:	73 74 61 
  402701:	49 89 46 18          	mov    %rax,0x18(%r14)
  402705:	48 b8 74 75 73 20 6d 	movabs $0x7373656d20737574,%rax
  40270c:	65 73 73 
  40270f:	49 89 46 20          	mov    %rax,0x20(%r14)
  402713:	48 b8 61 67 65 20 66 	movabs $0x6d6f726620656761,%rax
  40271a:	72 6f 6d 
  40271d:	49 89 46 28          	mov    %rax,0x28(%r14)
  402721:	48 b8 20 72 65 73 75 	movabs $0x20746c7573657220,%rax
  402728:	6c 74 20 
  40272b:	49 89 46 30          	mov    %rax,0x30(%r14)
  40272f:	41 c7 46 38 73 65 72 	movl   $0x76726573,0x38(%r14)
  402736:	76 
  402737:	66 41 c7 46 3c 65 72 	movw   $0x7265,0x3c(%r14)
  40273e:	41 c6 46 3e 00       	movb   $0x0,0x3e(%r14)
  402743:	44 89 e7             	mov    %r12d,%edi
  402746:	e8 65 e5 ff ff       	callq  400cb0 <close@plt>
  40274b:	b8 ff ff ff ff       	mov    $0xffffffff,%eax
  402750:	e9 dc 01 00 00       	jmpq   402931 <submitr+0x856>
  402755:	8b 94 24 2c 20 00 00 	mov    0x202c(%rsp),%edx
  40275c:	81 fa c8 00 00 00    	cmp    $0xc8,%edx
  402762:	74 29                	je     40278d <submitr+0x6b2>
  402764:	48 8d 4c 24 20       	lea    0x20(%rsp),%rcx
  402769:	be f8 34 40 00       	mov    $0x4034f8,%esi
  40276e:	4c 89 f7             	mov    %r14,%rdi
  402771:	b8 00 00 00 00       	mov    $0x0,%eax
  402776:	e8 65 e6 ff ff       	callq  400de0 <sprintf@plt>
  40277b:	44 89 e7             	mov    %r12d,%edi
  40277e:	e8 2d e5 ff ff       	callq  400cb0 <close@plt>
  402783:	b8 ff ff ff ff       	mov    $0xffffffff,%eax
  402788:	e9 a4 01 00 00       	jmpq   402931 <submitr+0x856>
  40278d:	48 8d b4 24 30 60 00 	lea    0x6030(%rsp),%rsi
  402794:	00 
  402795:	4c 89 f7             	mov    %r14,%rdi
  402798:	e8 a3 e4 ff ff       	callq  400c40 <strcpy@plt>
  40279d:	44 89 e7             	mov    %r12d,%edi
  4027a0:	e8 0b e5 ff ff       	callq  400cb0 <close@plt>
  4027a5:	41 0f b6 06          	movzbl (%r14),%eax
  4027a9:	83 e8 4f             	sub    $0x4f,%eax
  4027ac:	89 c2                	mov    %eax,%edx
  4027ae:	0f 85 35 01 00 00    	jne    4028e9 <submitr+0x80e>
  4027b4:	41 80 7e 01 4b       	cmpb   $0x4b,0x1(%r14)
  4027b9:	0f 85 50 01 00 00    	jne    40290f <submitr+0x834>
  4027bf:	41 80 7e 02 0a       	cmpb   $0xa,0x2(%r14)
  4027c4:	0f 85 45 01 00 00    	jne    40290f <submitr+0x834>
  4027ca:	41 80 7e 03 00       	cmpb   $0x0,0x3(%r14)
  4027cf:	74 23                	je     4027f4 <submitr+0x719>
  4027d1:	e9 39 01 00 00       	jmpq   40290f <submitr+0x834>
  4027d6:	41 0f b6 56 01       	movzbl 0x1(%r14),%edx
  4027db:	83 ea 4b             	sub    $0x4b,%edx
  4027de:	75 05                	jne    4027e5 <submitr+0x70a>
  4027e0:	41 0f b6 56 02       	movzbl 0x2(%r14),%edx
  4027e5:	85 d2                	test   %edx,%edx
  4027e7:	0f 95 c0             	setne  %al
  4027ea:	0f b6 c0             	movzbl %al,%eax
  4027ed:	f7 d8                	neg    %eax
  4027ef:	e9 3d 01 00 00       	jmpq   402931 <submitr+0x856>
  4027f4:	b8 00 00 00 00       	mov    $0x0,%eax
  4027f9:	e9 33 01 00 00       	jmpq   402931 <submitr+0x856>
  4027fe:	4d 89 f9             	mov    %r15,%r9
  402801:	4c 8d 84 24 30 40 00 	lea    0x4030(%rsp),%r8
  402808:	00 
  402809:	48 8b 0c 24          	mov    (%rsp),%rcx
  40280d:	48 8b 54 24 08       	mov    0x8(%rsp),%rdx
  402812:	be 28 35 40 00       	mov    $0x403528,%esi
  402817:	48 8d bc 24 30 60 00 	lea    0x6030(%rsp),%rdi
  40281e:	00 
  40281f:	b8 00 00 00 00       	mov    $0x0,%eax
  402824:	e8 b7 e5 ff ff       	callq  400de0 <sprintf@plt>
  402829:	48 8d bc 24 30 60 00 	lea    0x6030(%rsp),%rdi
  402830:	00 
  402831:	b8 00 00 00 00       	mov    $0x0,%eax
  402836:	48 c7 c1 ff ff ff ff 	mov    $0xffffffffffffffff,%rcx
  40283d:	f2 ae                	repnz scas %es:(%rdi),%al
  40283f:	48 f7 d1             	not    %rcx
  402842:	48 83 e9 01          	sub    $0x1,%rcx
  402846:	49 89 cd             	mov    %rcx,%r13
  402849:	0f 84 a1 fc ff ff    	je     4024f0 <submitr+0x415>
  40284f:	48 89 cb             	mov    %rcx,%rbx
  402852:	48 8d ac 24 30 60 00 	lea    0x6030(%rsp),%rbp
  402859:	00 
  40285a:	e9 f1 fb ff ff       	jmpq   402450 <submitr+0x375>
  40285f:	48 b8 45 72 72 6f 72 	movabs $0x52203a726f727245,%rax
  402866:	3a 20 52 
  402869:	49 89 06             	mov    %rax,(%r14)
  40286c:	48 b8 65 73 75 6c 74 	movabs $0x747320746c757365,%rax
  402873:	20 73 74 
  402876:	49 89 46 08          	mov    %rax,0x8(%r14)
  40287a:	48 b8 72 69 6e 67 20 	movabs $0x6e6f6320676e6972,%rax
  402881:	63 6f 6e 
  402884:	49 89 46 10          	mov    %rax,0x10(%r14)
  402888:	48 b8 74 61 69 6e 73 	movabs $0x6e6120736e696174,%rax
  40288f:	20 61 6e 
  402892:	49 89 46 18          	mov    %rax,0x18(%r14)
  402896:	48 b8 20 69 6c 6c 65 	movabs $0x6c6167656c6c6920,%rax
  40289d:	67 61 6c 
  4028a0:	49 89 46 20          	mov    %rax,0x20(%r14)
  4028a4:	48 b8 20 6f 72 20 75 	movabs $0x72706e7520726f20,%rax
  4028ab:	6e 70 72 
  4028ae:	49 89 46 28          	mov    %rax,0x28(%r14)
  4028b2:	48 b8 69 6e 74 61 62 	movabs $0x20656c6261746e69,%rax
  4028b9:	6c 65 20 
  4028bc:	49 89 46 30          	mov    %rax,0x30(%r14)
  4028c0:	48 b8 63 68 61 72 61 	movabs $0x6574636172616863,%rax
  4028c7:	63 74 65 
  4028ca:	49 89 46 38          	mov    %rax,0x38(%r14)
  4028ce:	66 41 c7 46 40 72 2e 	movw   $0x2e72,0x40(%r14)
  4028d5:	41 c6 46 42 00       	movb   $0x0,0x42(%r14)
  4028da:	44 89 e7             	mov    %r12d,%edi
  4028dd:	e8 ce e3 ff ff       	callq  400cb0 <close@plt>
  4028e2:	b8 ff ff ff ff       	mov    $0xffffffff,%eax
  4028e7:	eb 48                	jmp    402931 <submitr+0x856>
  4028e9:	bf 80 35 40 00       	mov    $0x403580,%edi
  4028ee:	b9 05 00 00 00       	mov    $0x5,%ecx
  4028f3:	4c 89 f6             	mov    %r14,%rsi
  4028f6:	f3 a6                	repz cmpsb %es:(%rdi),%ds:(%rsi)
  4028f8:	40 0f 97 c6          	seta   %sil
  4028fc:	0f 92 c1             	setb   %cl
  4028ff:	b8 00 00 00 00       	mov    $0x0,%eax
  402904:	40 38 ce             	cmp    %cl,%sil
  402907:	0f 85 d8 fe ff ff    	jne    4027e5 <submitr+0x70a>
  40290d:	eb 22                	jmp    402931 <submitr+0x856>
  40290f:	bf 80 35 40 00       	mov    $0x403580,%edi
  402914:	b9 05 00 00 00       	mov    $0x5,%ecx
  402919:	4c 89 f6             	mov    %r14,%rsi
  40291c:	f3 a6                	repz cmpsb %es:(%rdi),%ds:(%rsi)
  40291e:	0f 97 c1             	seta   %cl
  402921:	0f 92 c2             	setb   %dl
  402924:	b8 00 00 00 00       	mov    $0x0,%eax
  402929:	38 d1                	cmp    %dl,%cl
  40292b:	0f 85 a5 fe ff ff    	jne    4027d6 <submitr+0x6fb>
  402931:	48 81 c4 58 a0 00 00 	add    $0xa058,%rsp
  402938:	5b                   	pop    %rbx
  402939:	5d                   	pop    %rbp
  40293a:	41 5c                	pop    %r12
  40293c:	41 5d                	pop    %r13
  40293e:	41 5e                	pop    %r14
  402940:	41 5f                	pop    %r15
  402942:	c3                   	retq   

0000000000402943 <init_timeout>:
  402943:	53                   	push   %rbx
  402944:	89 fb                	mov    %edi,%ebx
  402946:	85 ff                	test   %edi,%edi
  402948:	74 1e                	je     402968 <init_timeout+0x25>
  40294a:	be a0 1f 40 00       	mov    $0x401fa0,%esi
  40294f:	bf 0e 00 00 00       	mov    $0xe,%edi
  402954:	e8 87 e3 ff ff       	callq  400ce0 <signal@plt>
  402959:	85 db                	test   %ebx,%ebx
  40295b:	bf 00 00 00 00       	mov    $0x0,%edi
  402960:	0f 49 fb             	cmovns %ebx,%edi
  402963:	e8 38 e3 ff ff       	callq  400ca0 <alarm@plt>
  402968:	5b                   	pop    %rbx
  402969:	c3                   	retq   

000000000040296a <init_driver>:
  40296a:	55                   	push   %rbp
  40296b:	53                   	push   %rbx
  40296c:	48 83 ec 18          	sub    $0x18,%rsp
  402970:	48 89 fd             	mov    %rdi,%rbp
  402973:	be 01 00 00 00       	mov    $0x1,%esi
  402978:	bf 0d 00 00 00       	mov    $0xd,%edi
  40297d:	e8 5e e3 ff ff       	callq  400ce0 <signal@plt>
  402982:	be 01 00 00 00       	mov    $0x1,%esi
  402987:	bf 1d 00 00 00       	mov    $0x1d,%edi
  40298c:	e8 4f e3 ff ff       	callq  400ce0 <signal@plt>
  402991:	be 01 00 00 00       	mov    $0x1,%esi
  402996:	bf 1d 00 00 00       	mov    $0x1d,%edi
  40299b:	e8 40 e3 ff ff       	callq  400ce0 <signal@plt>
  4029a0:	ba 00 00 00 00       	mov    $0x0,%edx
  4029a5:	be 01 00 00 00       	mov    $0x1,%esi
  4029aa:	bf 02 00 00 00       	mov    $0x2,%edi
  4029af:	e8 5c e4 ff ff       	callq  400e10 <socket@plt>
  4029b4:	89 c3                	mov    %eax,%ebx
  4029b6:	85 c0                	test   %eax,%eax
  4029b8:	79 4f                	jns    402a09 <init_driver+0x9f>
  4029ba:	48 b8 45 72 72 6f 72 	movabs $0x43203a726f727245,%rax
  4029c1:	3a 20 43 
  4029c4:	48 89 45 00          	mov    %rax,0x0(%rbp)
  4029c8:	48 b8 6c 69 65 6e 74 	movabs $0x6e7520746e65696c,%rax
  4029cf:	20 75 6e 
  4029d2:	48 89 45 08          	mov    %rax,0x8(%rbp)
  4029d6:	48 b8 61 62 6c 65 20 	movabs $0x206f7420656c6261,%rax
  4029dd:	74 6f 20 
  4029e0:	48 89 45 10          	mov    %rax,0x10(%rbp)
  4029e4:	48 b8 63 72 65 61 74 	movabs $0x7320657461657263,%rax
  4029eb:	65 20 73 
  4029ee:	48 89 45 18          	mov    %rax,0x18(%rbp)
  4029f2:	c7 45 20 6f 63 6b 65 	movl   $0x656b636f,0x20(%rbp)
  4029f9:	66 c7 45 24 74 00    	movw   $0x74,0x24(%rbp)
  4029ff:	b8 ff ff ff ff       	mov    $0xffffffff,%eax
  402a04:	e9 23 01 00 00       	jmpq   402b2c <init_driver+0x1c2>
  402a09:	bf cd 30 40 00       	mov    $0x4030cd,%edi
  402a0e:	e8 dd e2 ff ff       	callq  400cf0 <gethostbyname@plt>
  402a13:	48 85 c0             	test   %rax,%rax
  402a16:	75 68                	jne    402a80 <init_driver+0x116>
  402a18:	48 b8 45 72 72 6f 72 	movabs $0x44203a726f727245,%rax
  402a1f:	3a 20 44 
  402a22:	48 89 45 00          	mov    %rax,0x0(%rbp)
  402a26:	48 b8 4e 53 20 69 73 	movabs $0x6e7520736920534e,%rax
  402a2d:	20 75 6e 
  402a30:	48 89 45 08          	mov    %rax,0x8(%rbp)
  402a34:	48 b8 61 62 6c 65 20 	movabs $0x206f7420656c6261,%rax
  402a3b:	74 6f 20 
  402a3e:	48 89 45 10          	mov    %rax,0x10(%rbp)
  402a42:	48 b8 72 65 73 6f 6c 	movabs $0x2065766c6f736572,%rax
  402a49:	76 65 20 
  402a4c:	48 89 45 18          	mov    %rax,0x18(%rbp)
  402a50:	48 b8 73 65 72 76 65 	movabs $0x6120726576726573,%rax
  402a57:	72 20 61 
  402a5a:	48 89 45 20          	mov    %rax,0x20(%rbp)
  402a5e:	c7 45 28 64 64 72 65 	movl   $0x65726464,0x28(%rbp)
  402a65:	66 c7 45 2c 73 73    	movw   $0x7373,0x2c(%rbp)
  402a6b:	c6 45 2e 00          	movb   $0x0,0x2e(%rbp)
  402a6f:	89 df                	mov    %ebx,%edi
  402a71:	e8 3a e2 ff ff       	callq  400cb0 <close@plt>
  402a76:	b8 ff ff ff ff       	mov    $0xffffffff,%eax
  402a7b:	e9 ac 00 00 00       	jmpq   402b2c <init_driver+0x1c2>
  402a80:	48 c7 04 24 00 00 00 	movq   $0x0,(%rsp)
  402a87:	00 
  402a88:	48 c7 44 24 08 00 00 	movq   $0x0,0x8(%rsp)
  402a8f:	00 00 
  402a91:	66 c7 04 24 02 00    	movw   $0x2,(%rsp)
  402a97:	48 63 50 14          	movslq 0x14(%rax),%rdx
  402a9b:	48 8d 74 24 04       	lea    0x4(%rsp),%rsi
  402aa0:	48 8b 40 18          	mov    0x18(%rax),%rax
  402aa4:	48 8b 38             	mov    (%rax),%rdi
  402aa7:	e8 e4 e2 ff ff       	callq  400d90 <bcopy@plt>
  402aac:	66 c7 44 24 02 3c 9a 	movw   $0x9a3c,0x2(%rsp)
  402ab3:	ba 10 00 00 00       	mov    $0x10,%edx
  402ab8:	48 89 e6             	mov    %rsp,%rsi
  402abb:	89 df                	mov    %ebx,%edi
  402abd:	e8 3e e3 ff ff       	callq  400e00 <connect@plt>
  402ac2:	85 c0                	test   %eax,%eax
  402ac4:	79 50                	jns    402b16 <init_driver+0x1ac>
  402ac6:	48 b8 45 72 72 6f 72 	movabs $0x55203a726f727245,%rax
  402acd:	3a 20 55 
  402ad0:	48 89 45 00          	mov    %rax,0x0(%rbp)
  402ad4:	48 b8 6e 61 62 6c 65 	movabs $0x6f7420656c62616e,%rax
  402adb:	20 74 6f 
  402ade:	48 89 45 08          	mov    %rax,0x8(%rbp)
  402ae2:	48 b8 20 63 6f 6e 6e 	movabs $0x7463656e6e6f6320,%rax
  402ae9:	65 63 74 
  402aec:	48 89 45 10          	mov    %rax,0x10(%rbp)
  402af0:	48 b8 20 74 6f 20 73 	movabs $0x76726573206f7420,%rax
  402af7:	65 72 76 
  402afa:	48 89 45 18          	mov    %rax,0x18(%rbp)
  402afe:	66 c7 45 20 65 72    	movw   $0x7265,0x20(%rbp)
  402b04:	c6 45 22 00          	movb   $0x0,0x22(%rbp)
  402b08:	89 df                	mov    %ebx,%edi
  402b0a:	e8 a1 e1 ff ff       	callq  400cb0 <close@plt>
  402b0f:	b8 ff ff ff ff       	mov    $0xffffffff,%eax
  402b14:	eb 16                	jmp    402b2c <init_driver+0x1c2>
  402b16:	89 df                	mov    %ebx,%edi
  402b18:	e8 93 e1 ff ff       	callq  400cb0 <close@plt>
  402b1d:	66 c7 45 00 4f 4b    	movw   $0x4b4f,0x0(%rbp)
  402b23:	c6 45 02 00          	movb   $0x0,0x2(%rbp)
  402b27:	b8 00 00 00 00       	mov    $0x0,%eax
  402b2c:	48 83 c4 18          	add    $0x18,%rsp
  402b30:	5b                   	pop    %rbx
  402b31:	5d                   	pop    %rbp
  402b32:	c3                   	retq   

0000000000402b33 <driver_post>:
  402b33:	53                   	push   %rbx
  402b34:	48 83 ec 10          	sub    $0x10,%rsp
  402b38:	4c 89 cb             	mov    %r9,%rbx
  402b3b:	45 85 c0             	test   %r8d,%r8d
  402b3e:	74 22                	je     402b62 <driver_post+0x2f>
  402b40:	48 89 ce             	mov    %rcx,%rsi
  402b43:	bf 85 35 40 00       	mov    $0x403585,%edi
  402b48:	b8 00 00 00 00       	mov    $0x0,%eax
  402b4d:	e8 2e e1 ff ff       	callq  400c80 <printf@plt>
  402b52:	66 c7 03 4f 4b       	movw   $0x4b4f,(%rbx)
  402b57:	c6 43 02 00          	movb   $0x0,0x2(%rbx)
  402b5b:	b8 00 00 00 00       	mov    $0x0,%eax
  402b60:	eb 39                	jmp    402b9b <driver_post+0x68>
  402b62:	48 85 ff             	test   %rdi,%rdi
  402b65:	74 26                	je     402b8d <driver_post+0x5a>
  402b67:	80 3f 00             	cmpb   $0x0,(%rdi)
  402b6a:	74 21                	je     402b8d <driver_post+0x5a>
  402b6c:	4c 89 0c 24          	mov    %r9,(%rsp)
  402b70:	49 89 c9             	mov    %rcx,%r9
  402b73:	49 89 d0             	mov    %rdx,%r8
  402b76:	48 89 f9             	mov    %rdi,%rcx
  402b79:	48 89 f2             	mov    %rsi,%rdx
  402b7c:	be 9a 3c 00 00       	mov    $0x3c9a,%esi
  402b81:	bf cd 30 40 00       	mov    $0x4030cd,%edi
  402b86:	e8 50 f5 ff ff       	callq  4020db <submitr>
  402b8b:	eb 0e                	jmp    402b9b <driver_post+0x68>
  402b8d:	66 c7 03 4f 4b       	movw   $0x4b4f,(%rbx)
  402b92:	c6 43 02 00          	movb   $0x0,0x2(%rbx)
  402b96:	b8 00 00 00 00       	mov    $0x0,%eax
  402b9b:	48 83 c4 10          	add    $0x10,%rsp
  402b9f:	5b                   	pop    %rbx
  402ba0:	c3                   	retq   
  402ba1:	66 2e 0f 1f 84 00 00 	nopw   %cs:0x0(%rax,%rax,1)
  402ba8:	00 00 00 
  402bab:	0f 1f 44 00 00       	nopl   0x0(%rax,%rax,1)

0000000000402bb0 <check>:
  402bb0:	89 fa                	mov    %edi,%edx
  402bb2:	c1 ea 1c             	shr    $0x1c,%edx
  402bb5:	b8 00 00 00 00       	mov    $0x0,%eax
  402bba:	85 d2                	test   %edx,%edx
  402bbc:	74 2e                	je     402bec <check+0x3c>
  402bbe:	40 80 ff 0a          	cmp    $0xa,%dil
  402bc2:	74 17                	je     402bdb <check+0x2b>
  402bc4:	b9 08 00 00 00       	mov    $0x8,%ecx
  402bc9:	89 f8                	mov    %edi,%eax
  402bcb:	d3 e8                	shr    %cl,%eax
  402bcd:	3c 0a                	cmp    $0xa,%al
  402bcf:	74 10                	je     402be1 <check+0x31>
  402bd1:	83 c1 08             	add    $0x8,%ecx
  402bd4:	83 f9 20             	cmp    $0x20,%ecx
  402bd7:	75 f0                	jne    402bc9 <check+0x19>
  402bd9:	eb 0c                	jmp    402be7 <check+0x37>
  402bdb:	b8 00 00 00 00       	mov    $0x0,%eax
  402be0:	c3                   	retq   
  402be1:	b8 00 00 00 00       	mov    $0x0,%eax
  402be6:	c3                   	retq   
  402be7:	b8 01 00 00 00       	mov    $0x1,%eax
  402bec:	f3 c3                	repz retq 

0000000000402bee <gencookie>:
  402bee:	53                   	push   %rbx
  402bef:	83 c7 01             	add    $0x1,%edi
  402bf2:	e8 29 e0 ff ff       	callq  400c20 <srandom@plt>
  402bf7:	e8 54 e1 ff ff       	callq  400d50 <random@plt>
  402bfc:	89 c3                	mov    %eax,%ebx
  402bfe:	89 c7                	mov    %eax,%edi
  402c00:	e8 ab ff ff ff       	callq  402bb0 <check>
  402c05:	85 c0                	test   %eax,%eax
  402c07:	74 ee                	je     402bf7 <gencookie+0x9>
  402c09:	89 d8                	mov    %ebx,%eax
  402c0b:	5b                   	pop    %rbx
  402c0c:	c3                   	retq   
  402c0d:	0f 1f 00             	nopl   (%rax)

0000000000402c10 <__libc_csu_init>:
  402c10:	41 57                	push   %r15
  402c12:	41 89 ff             	mov    %edi,%r15d
  402c15:	41 56                	push   %r14
  402c17:	49 89 f6             	mov    %rsi,%r14
  402c1a:	41 55                	push   %r13
  402c1c:	49 89 d5             	mov    %rdx,%r13
  402c1f:	41 54                	push   %r12
  402c21:	4c 8d 25 e8 21 20 00 	lea    0x2021e8(%rip),%r12        # 604e10 <__frame_dummy_init_array_entry>
  402c28:	55                   	push   %rbp
  402c29:	48 8d 2d e8 21 20 00 	lea    0x2021e8(%rip),%rbp        # 604e18 <__init_array_end>
  402c30:	53                   	push   %rbx
  402c31:	4c 29 e5             	sub    %r12,%rbp
  402c34:	31 db                	xor    %ebx,%ebx
  402c36:	48 c1 fd 03          	sar    $0x3,%rbp
  402c3a:	48 83 ec 08          	sub    $0x8,%rsp
  402c3e:	e8 85 df ff ff       	callq  400bc8 <_init>
  402c43:	48 85 ed             	test   %rbp,%rbp
  402c46:	74 1e                	je     402c66 <__libc_csu_init+0x56>
  402c48:	0f 1f 84 00 00 00 00 	nopl   0x0(%rax,%rax,1)
  402c4f:	00 
  402c50:	4c 89 ea             	mov    %r13,%rdx
  402c53:	4c 89 f6             	mov    %r14,%rsi
  402c56:	44 89 ff             	mov    %r15d,%edi
  402c59:	41 ff 14 dc          	callq  *(%r12,%rbx,8)
  402c5d:	48 83 c3 01          	add    $0x1,%rbx
  402c61:	48 39 eb             	cmp    %rbp,%rbx
  402c64:	75 ea                	jne    402c50 <__libc_csu_init+0x40>
  402c66:	48 83 c4 08          	add    $0x8,%rsp
  402c6a:	5b                   	pop    %rbx
  402c6b:	5d                   	pop    %rbp
  402c6c:	41 5c                	pop    %r12
  402c6e:	41 5d                	pop    %r13
  402c70:	41 5e                	pop    %r14
  402c72:	41 5f                	pop    %r15
  402c74:	c3                   	retq   
  402c75:	90                   	nop
  402c76:	66 2e 0f 1f 84 00 00 	nopw   %cs:0x0(%rax,%rax,1)
  402c7d:	00 00 00 

0000000000402c80 <__libc_csu_fini>:
  402c80:	f3 c3                	repz retq 

Disassembly of section .fini:

0000000000402c84 <_fini>:
  402c84:	48 83 ec 08          	sub    $0x8,%rsp
  402c88:	48 83 c4 08          	add    $0x8,%rsp
  402c8c:	c3                   	retq   
